(dp1
S'hypocalcemia'
p2
c__builtin__
set
p3
((lp4
S'DB01164'
p5
aS'DB00653'
p6
aS'DB00153'
p7
aS'DB00974'
p8
aS'DB01012'
p9
aS'DB00146'
p10
aS'DB00136'
p11
aS'DB00282'
p12
aS'DB01436'
p13
aS'DB00399'
p14
aS'DB01070'
p15
aS'DB00169'
p16
aS'DB00017'
p17
aS'DB06724'
p18
aS'DB00910'
p19
atRp20
sS'porphyria, acute intermittent'
p21
g3
((lp22
S'DB00996'
p23
aS'DB00125'
p24
aS'DB00855'
p25
atRp26
sS'porphyria cutanea tarda'
p27
g3
((lp28
g25
aS'DB00608'
p29
aS'DB01592'
p30
aS'DB01611'
p31
atRp32
sS'kidney diseases'
p33
g3
((lp34
S'DB01028'
p35
aS'DB00148'
p36
aS'DB00796'
p37
aS'DB00742'
p38
aS'DB00678'
p39
ag11
aS'DB00067'
p40
ag8
aS'DB00151'
p41
aS'DB00658'
p42
aS'DB00493'
p43
aS'DB00789'
p44
aS'DB00584'
p45
aS'DB00225'
p46
ag16
aS'DB00800'
p47
aS'DB00143'
p48
aS'DB00381'
p49
aS'DB00566'
p50
aS'DB00681'
p51
aS'DB00877'
p52
aS'DB00993'
p53
aS'DB00955'
p54
aS'DB00684'
p55
aS'DB00456'
p56
aS'DB00688'
p57
aS'DB01356'
p58
aS'DB01024'
p59
aS'DB00999'
p60
ag7
aS'DB00700'
p61
ag9
aS'DB00258'
p62
aS'DB01111'
p63
aS'DB00271'
p64
aS'DB01394'
p65
aS'DB00421'
p66
ag19
aS'DB00091'
p67
aS'DB01143'
p68
aS'DB00512'
p69
aS'DB01396'
p70
aS'DB00966'
p71
aS'DB00722'
p72
aS'DB00635'
p73
aS'DB01172'
p74
aS'DB00880'
p75
aS'DB01390'
p76
aS'DB00316'
p77
aS'DB06151'
p78
aS'DB00390'
p79
aS'DB01197'
p80
aS'DB00586'
p81
aS'DB00803'
p82
aS'DB00542'
p83
aS'DB01032'
p84
aS'DB00903'
p85
aS'DB01362'
p86
aS'DB01181'
p87
aS'DB00864'
p88
aS'DB00695'
p89
aS'DB00860'
p90
aS'DB00698'
p91
aS'DB00534'
p92
aS'DB00519'
p93
aS'DB00859'
p94
aS'DB00531'
p95
aS'DB01029'
p96
aS'DB01003'
p97
aS'DB00177'
p98
aS'DB01249'
p99
aS'DB00300'
p100
aS'DB00479'
p101
aS'DB00369'
p102
aS'DB00437'
p103
aS'DB00178'
p104
aS'DB00798'
p105
aS'DB00345'
p106
atRp107
sS'hemangioma, cavernous'
p108
g3
((lp109
g44
ag73
aS'DB00290'
p110
ag90
atRp111
sS'sezary syndrome'
p112
g3
((lp113
S'DB00888'
p114
ag90
aS'DB00307'
p115
aS'DB00291'
p116
ag73
aS'DB00553'
p117
aS'DB00552'
p118
atRp119
sS'congenital hypothyroidism'
p120
g3
((lp121
S'DB00763'
p122
aS'DB00279'
p123
aS'DB06715'
p124
aS'DB00550'
p125
atRp126
sS'wolff-parkinson-white syndrome'
p127
g3
((lp128
S'DB01118'
p129
aS'DB01119'
p130
aS'DB00194'
p131
aS'DB01429'
p132
aS'DB00640'
p133
aS'DB00489'
p134
aS'DB01426'
p135
aS'DB00468'
p136
aS'DB01035'
p137
aS'DB01064'
p138
ag79
aS'DB00908'
p139
aS'DB00424'
p140
aS'DB00281'
p141
aS'DB00280'
p142
aS'DB00661'
p143
aS'DB00571'
p144
aS'DB00379'
p145
aS'DB00572'
p146
aS'DB01182'
p147
aS'DB01195'
p148
atRp149
sS'hypothyroidism'
p150
g3
((lp151
g129
aS'DB00094'
p152
ag122
ag40
aS'DB00509'
p153
ag58
aS'DB01285'
p154
aS'DB01268'
p155
aS'DB00741'
p156
ag115
ag123
ag124
aS'DB00389'
p157
ag144
ag125
atRp158
sS'pseudohypoaldosteronism'
p159
g3
((lp160
g97
aS'DB00687'
p161
aS'DB00594'
p162
atRp163
sS'pulmonary disease, chronic obstructive'
p164
g3
((lp165
S'DB01288'
p166
aS'DB01165'
p167
aS'DB00207'
p168
ag41
aS'DB00203'
p169
aS'DB00938'
p170
aS'DB00871'
p171
aS'DB01137'
p172
aS'DB01273'
p173
aS'DB01274'
p174
aS'DB01409'
p175
aS'DB00588'
p176
aS'DB01156'
p177
aS'DB00218'
p178
ag78
aS'DB00332'
p179
aS'DB01656'
p180
aS'DB00394'
p181
aS'DB00907'
p182
aS'DB00983'
p183
aS'DB01222'
p184
aS'DB01223'
p185
ag90
aS'DB05039'
p186
aS'DB00277'
p187
aS'DB01001'
p188
aS'DB00435'
p189
atRp190
sS'nephritis, hereditary'
p191
g3
((lp192
S'DB00145'
p193
atRp194
sS'osteoporosis'
p195
g3
((lp196
S'DB01380'
p197
aS'DB00481'
p198
ag11
ag7
ag13
aS'DB00977'
p199
aS'DB00675'
p200
aS'DB01022'
p201
aS'DB06285'
p202
ag12
aS'DB00310'
p203
aS'DB01133'
p204
aS'DB00783'
p205
aS'DB00624'
p206
aS'DB08804'
p207
ag16
ag17
aS'DB00014'
p208
aS'DB00170'
p209
aS'DB01077'
p210
aS'DB00720'
p211
aS'DB00884'
p212
aS'DB01420'
p213
ag10
ag14
ag18
ag90
aS'DB00603'
p214
aS'DB01221'
p215
aS'DB00630'
p216
aS'DB00710'
p217
ag73
aS'DB00007'
p218
aS'DB06718'
p219
atRp220
sS'drug hypersensitivity'
p221
g3
((lp222
S'DB00750'
p223
aS'DB00951'
p224
aS'DB00086'
p225
aS'DB01060'
p226
aS'DB01053'
p227
aS'DB01050'
p228
aS'DB00759'
p229
aS'DB00732'
p230
aS'DB00959'
p231
aS'DB01045'
p232
aS'DB00202'
p233
aS'DB00895'
p234
aS'DB00812'
p235
aS'DB08813'
p236
aS'DB00482'
p237
aS'DB00795'
p238
ag141
aS'DB01015'
p239
ag137
aS'DB00667'
p240
aS'DB01229'
p241
aS'DB00500'
p242
aS'DB00567'
p243
aS'DB00564'
p244
aS'DB00994'
p245
ag53
aS'DB00446'
p246
ag94
ag136
aS'DB00526'
p247
aS'DB00527'
p248
aS'DB00250'
p249
aS'DB00252'
p250
aS'DB00626'
p251
aS'DB00498'
p252
aS'DB00721'
p253
aS'DB00355'
p254
ag64
aS'DB00833'
p255
aS'DB00238'
p256
aS'DB01201'
p257
aS'DB00728'
p258
aS'DB00318'
p259
aS'DB00609'
p260
aS'DB00417'
p261
aS'DB01075'
p262
aS'DB00339'
p263
ag69
ag74
aS'DB01031'
p264
ag73
aS'DB01114'
p265
aS'DB01159'
p266
ag81
aS'DB00330'
p267
aS'DB00565'
p268
ag139
ag56
aS'DB00599'
p269
aS'DB00968'
p270
ag77
aS'DB01017'
p271
aS'DB01627'
p272
ag86
aS'DB00415'
p273
aS'DB00319'
p274
aS'DB00961'
p275
ag90
ag91
ag185
aS'DB01086'
p276
aS'DB01048'
p277
aS'DB01082'
p278
aS'DB00440'
p279
aS'DB01248'
p280
aS'DB00199'
p281
aS'DB00244'
p282
aS'DB01327'
p283
aS'DB00555'
p284
ag103
aS'DB00958'
p285
aS'DB01190'
p286
atRp287
sS'paraproteinemias'
p288
g3
((lp289
S'DB00480'
p290
ag53
ag90
aS'DB01042'
p291
ag95
aS'DB00443'
p292
aS'DB01234'
p293
aS'DB00188'
p294
ag116
ag73
aS'DB00541'
p295
atRp296
sS'gastrointestinal neoplasms'
p297
g3
((lp298
S'DB00997'
p299
aS'DB00619'
p300
aS'DB00441'
p301
aS'DB00650'
p302
aS'DB00563'
p303
aS'DB00762'
p304
aS'DB01206'
p305
ag247
aS'DB01101'
p306
ag95
ag155
aS'DB00104'
p307
aS'DB00305'
p308
aS'DB04868'
p309
aS'DB00322'
p310
aS'DB00428'
p311
ag295
aS'DB00262'
p312
atRp313
sS'skin diseases, vascular'
p314
g3
((lp315
S'DB00848'
p316
ag90
atRp317
sS'agammaglobulinemia'
p318
g3
((lp319
S'DB01265'
p320
ag53
ag90
ag95
ag116
ag73
atRp321
sS'spinocerebellar degenerations'
p322
g3
((lp323
S'DB00130'
p324
aS'DB00819'
p325
aS'DB00163'
p326
atRp327
sS'tooth abnormalities'
p328
g3
((lp329
g229
atRp330
sS'cerebellar ataxia'
p331
g3
((lp332
S'DB02959'
p333
ag324
ag250
ag325
aS'DB00490'
p334
atRp335
sS'lymphoma, follicular'
p336
g3
((lp337
S'DB00773'
p338
aS'DB01168'
p339
ag291
ag299
ag303
ag293
ag292
ag294
ag295
aS'DB01073'
p340
ag133
ag73
ag110
ag116
ag87
aS'DB00987'
p341
aS'DB01204'
p342
ag90
ag95
aS'DB00444'
p343
ag131
ag312
atRp344
sS'skin diseases, bacterial'
p345
g3
((lp346
S'DB06149'
p347
ag226
aS'DB00080'
p348
ag168
ag232
aS'DB04576'
p349
ag167
aS'DB01211'
p350
aS'DB00560'
p351
ag271
aS'DB00254'
p352
ag172
ag254
aS'DB01256'
p353
ag274
ag178
ag257
aS'DB00601'
p354
ag267
aS'DB06402'
p355
aS'DB02703'
p356
ag69
aS'DB00410'
p357
ag101
aS'DB00537'
p358
aS'DB00303'
p359
ag281
aS'DB06590'
p360
atRp361
sS'colonic neoplasms'
p362
g3
((lp363
S'DB00158'
p364
ag302
ag11
ag247
ag306
ag291
aS'DB06777'
p365
aS'DB00917'
p366
ag338
aS'DB00380'
p367
ag299
aS'DB01099'
p368
ag303
aS'DB00445'
p369
ag25
ag301
aS'DB00707'
p370
ag295
ag237
ag304
aS'DB00127'
p371
aS'DB01030'
p372
aS'DB00605'
p373
aS'DB01586'
p374
ag241
aS'DB02546'
p375
ag310
aS'DB00293'
p376
ag320
aS'DB01262'
p377
ag305
ag316
ag308
aS'DB00554'
p378
ag312
atRp379
sS'macular degeneration'
p380
g3
((lp381
S'DB00460'
p382
aS'DB00137'
p383
aS'DB00126'
p384
aS'DB04895'
p385
aS'DB00162'
p386
ag326
aS'DB00693'
p387
aS'DB00620'
p388
aS'DB01593'
p389
aS'DB00556'
p390
atRp391
sS'ciliary motility disorders'
p392
g3
((lp393
g189
atRp394
sS'rhabdomyosarcoma'
p395
g3
((lp396
g299
ag87
ag338
ag303
ag304
ag291
ag372
ag95
aS'DB00970'
p397
aS'DB00851'
p398
ag110
aS'DB00570'
p399
ag295
atRp400
sS'ductus arteriosus, patent'
p401
g3
((lp402
g228
aS'DB00328'
p403
ag89
aS'DB00770'
p404
aS'DB00797'
p405
ag79
ag366
atRp406
sS'keratosis'
p407
g3
((lp408
S'DB00459'
p409
aS'DB00799'
p410
aS'DB00992'
p411
aS'DB00982'
p412
aS'DB00523'
p413
ag25
aS'DB00724'
p414
ag81
ag386
aS'DB02300'
p415
atRp416
sS'aggressive periodontitis'
p417
g3
((lp418
g229
aS'DB00878'
p419
ag226
ag352
aS'DB00916'
p420
atRp421
sS'erythema multiforme'
p422
g3
((lp423
g197
ag90
aS'DB00787'
p424
ag250
aS'DB00256'
p425
ag73
atRp426
sS'rheumatic diseases'
p427
g3
((lp428
g197
aS'DB01600'
p429
aS'DB01384'
p430
aS'DB00152'
p431
aS'DB01435'
p432
ag154
ag235
aS'DB00814'
p433
ag403
ag242
aS'DB00461'
p434
ag53
ag303
ag94
aS'DB01097'
p435
aS'DB00784'
p436
ag388
ag231
ag228
ag29
ag31
ag253
aS'DB00788'
p437
ag81
ag77
ag116
ag378
ag90
ag238
ag316
ag95
ag73
aS'DB00573'
p438
aS'DB01009'
p439
aS'DB00469'
p440
atRp441
sS'mucopolysaccharidosis iii'
p442
g3
((lp443
S'DB00141'
p444
aS'DB01296'
p445
atRp446
sS'darier disease'
p447
g3
((lp448
g409
ag410
ag412
ag413
aS'DB00210'
p449
ag386
ag326
atRp450
sS'cardiomegaly'
p451
g3
((lp452
g138
ag39
aS'DB00149'
p453
ag270
aS'DB00457'
p454
ag45
aS'DB00388'
p455
ag144
ag49
ag80
aS'DB00790'
p456
ag60
ag61
ag123
aS'DB01275'
p457
aS'DB00335'
p458
ag66
aS'DB00275'
p459
ag143
ag130
aS'DB01054'
p460
aS'DB01612'
p461
ag70
aS'DB00668'
p462
ag72
aS'DB00583'
p463
aS'DB00881'
p464
aS'DB01115'
p465
ag79
ag93
ag37
aS'DB01340'
p466
aS'DB00350'
p467
ag98
aS'DB00171'
p468
aS'DB00368'
p469
aS'DB00264'
p470
ag104
atRp471
sS'neurologic manifestations'
p472
g3
((lp473
g197
ag224
ag246
ag303
ag90
aS'DB00975'
p474
ag431
ag94
aS'DB00477'
p475
ag154
ag250
ag73
aS'DB00165'
p476
aS'DB06782'
p477
atRp478
sS'neuroma'
p479
g3
((lp480
g17
ag388
atRp481
sS'fibromatosis, gingival'
p482
g3
((lp483
g250
atRp484
sS'papillon-lefevre disease'
p485
g3
((lp486
g420
ag409
ag226
atRp487
sS'uveal diseases'
p488
g3
((lp489
S'DB00129'
p490
ag476
ag90
atRp491
sS'protein s deficiency'
p492
g3
((lp493
S'DB00682'
p494
aS'DB01225'
p495
ag236
atRp496
sS'lymphangiomyoma'
p497
g3
((lp498
g214
ag200
atRp499
sS'acanthosis nigricans'
p500
g3
((lp501
g415
ag206
ag213
aS'DB00331'
p502
atRp503
sS'anemia'
p504
g3
((lp505
g364
aS'DB08826'
p506
ag207
aS'DB00205'
p507
aS'DB00495'
p508
aS'DB01609'
p509
aS'DB00811'
p510
ag30
ag386
ag369
ag301
ag285
aS'DB00746'
p511
ag476
ag290
aS'DB01299'
p512
ag29
ag384
ag354
ag463
ag241
aS'DB01185'
p513
ag90
aS'DB00361'
p514
ag280
ag73
aS'DB01008'
p515
atRp516
sS'optic nerve diseases'
p517
g3
((lp518
g129
aS'DB00654'
p519
ag90
ag354
aS'DB01043'
p520
ag267
aS'DB00373'
p521
ag73
ag231
atRp522
sS'acidosis, renal tubular'
p523
g3
((lp524
g51
ag16
ag161
ag89
ag7
ag76
ag162
ag97
ag60
ag325
ag85
atRp525
sS'adrenal cortex neoplasms'
p526
g3
((lp527
g161
ag213
aS'DB01284'
p528
ag154
ag292
aS'DB00648'
p529
ag206
aS'DB01011'
p530
aS'DB01026'
p531
aS'DB00292'
p532
ag293
ag338
aS'DB00357'
p533
ag156
ag66
atRp534
sS'dwarfism, pituitary'
p535
g3
((lp536
S'DB00644'
p537
ag152
aS'DB01235'
p538
ag24
ag213
ag154
ag156
ag206
ag123
ag530
aS'DB00575'
p539
atRp540
sS'hypophosphatasia'
p541
g3
((lp542
g7
ag16
ag476
atRp543
sS'death, sudden'
p544
g3
((lp545
g129
ag130
aS'DB00898'
p546
ag136
ag132
aS'DB00866'
p547
ag474
aS'DB00679'
p548
aS'DB01297'
p549
ag137
ag138
ag250
ag139
ag141
ag144
ag470
ag145
ag182
aS'DB01138'
p550
ag148
atRp551
sS'bulbo-spinal atrophy, x-linked'
p552
g3
((lp553
g324
atRp554
sS'disease'
p555
g3
((lp556
g214
ag199
aS'DB00367'
p557
aS'DB01357'
p558
ag386
aS'DB00823'
p559
aS'DB00717'
p560
aS'DB00304'
p561
aS'DB00396'
p562
atRp563
sS'skin neoplasms'
p564
g3
((lp565
S'DB08828'
p566
ag300
ag338
ag7
aS'DB00591'
p567
ag200
ag291
ag397
aS'DB08881'
p568
ag299
ag386
ag52
ag53
ag411
ag538
ag413
ag25
aS'DB00853'
p569
ag398
ag285
aS'DB00548'
p570
ag370
ag16
ag295
ag67
ag114
aS'DB00337'
p571
ag73
ag414
ag110
ag116
ag399
aS'DB00398'
p572
ag303
aS'DB05013'
p573
ag409
ag410
ag305
ag412
ag90
ag95
ag115
aS'DB01005'
p574
ag375
aS'DB00309'
p575
ag117
ag118
ag312
atRp576
sS'hyperlipoproteinemia type iv'
p577
g3
((lp578
S'DB01241'
p579
aS'DB01039'
p580
aS'DB00636'
p581
aS'DB01599'
p582
aS'DB01393'
p583
atRp584
sS'chediak-higashi syndrome'
p585
g3
((lp586
g384
atRp587
sS'pemphigus'
p588
g3
((lp589
g197
ag67
ag53
ag303
ag90
aS'DB01103'
p590
ag59
ag94
ag57
ag95
ag154
ag292
ag293
ag249
ag80
ag388
ag425
ag73
aS'DB01013'
p591
aS'DB04786'
p592
ag231
atRp593
sS'eosinophilia'
p594
g3
((lp595
g300
aS'DB01411'
p596
ag231
aS'DB00150'
p597
ag244
aS'DB00920'
p598
ag292
ag249
ag271
ag184
aS'DB01058'
p599
ag176
aS'DB00730'
p600
aS'DB00643'
p601
ag240
aS'DB00602'
p602
ag574
ag181
aS'DB00471'
p603
ag90
ag91
aS'DB00518'
p604
ag95
ag238
aS'DB00363'
p605
aS'DB00711'
p606
ag73
aS'DB00341'
p607
atRp608
sS'cystic fibrosis'
p609
g3
((lp610
g138
aS'DB01147'
p611
aS'DB01607'
p612
aS'DB01061'
p613
aS'DB01167'
p614
ag228
ag168
aS'DB01413'
p615
ag365
ag162
aS'DB08820'
p616
aS'DB01598'
p617
ag55
ag386
aS'DB01046'
p618
ag7
ag254
ag326
ag41
ag274
ag130
aS'DB00760'
p619
ag97
ag63
aS'DB00582'
p620
ag78
ag374
ag82
ag105
ag101
ag358
aS'DB01085'
p621
aS'DB00578'
p622
ag188
aS'DB00438'
p623
aS'DB00301'
p624
atRp625
sS'epilepsies, myoclonic'
p626
g3
((lp627
S'DB00776'
p628
aS'DB01202'
p629
aS'DB00593'
p630
aS'DB01174'
p631
aS'DB01068'
p632
ag244
aS'DB00313'
p633
ag250
aS'DB00349'
p634
aS'DB00909'
p635
ag605
aS'DB00273'
p636
ag284
aS'DB01080'
p637
atRp638
sS'osteosclerosis'
p639
g3
((lp640
g7
ag16
ag291
ag17
atRp641
sS'myocardial infarction'
p642
g3
((lp643
S'DB01418'
p644
aS'DB00775'
p645
ag39
aS'DB01166'
p646
aS'DB00063'
p647
aS'DB00135'
p648
ag49
ag44
aS'DB01098'
p649
aS'DB01095'
p650
ag136
ag61
aS'DB01016'
p651
aS'DB01253'
p652
aS'DB01076'
p653
aS'DB00946'
p654
ag547
aS'DB00175'
p655
ag98
ag144
ag470
aS'DB00266'
p656
aS'DB01240'
p657
ag104
ag138
ag252
aS'DB00208'
p658
aS'DB00610'
p659
aS'DB00758'
p660
aS'DB00612'
p661
ag169
ag141
ag142
ag494
aS'DB00680'
p662
aS'DB00569'
p663
ag521
aS'DB00161'
p664
aS'DB06704'
p665
ag236
ag145
ag457
ag129
ag130
aS'DB01056'
p666
ag45
ag549
ag465
aS'DB01580'
p667
aS'DB00841'
p668
ag147
ag146
ag89
ag93
aS'DB01158'
p669
ag469
ag131
aS'DB06209'
p670
ag46
aS'DB01590'
p671
ag148
ag80
ag153
ag474
aS'DB00187'
p672
ag66
ag237
aS'DB00641'
p673
ag133
ag134
ag72
aS'DB00723'
p674
ag137
aS'DB00727'
p675
ag139
ag140
aS'DB06196'
p676
ag581
aS'DB00353'
p677
aS'DB00343'
p678
ag96
ag225
aS'DB00652'
p679
ag6
aS'DB01020'
p680
aS'DB00492'
p681
aS'DB01132'
p682
aS'DB01136'
p683
aS'DB00401'
p684
ag550
ag458
ag143
aS'DB00922'
p685
ag132
ag135
ag464
ag583
aS'DB00883'
p686
ag79
ag52
aS'DB08816'
p687
ag241
aS'DB00412'
p688
ag37
ag456
ag495
aS'DB00243'
p689
aS'DB00006'
p690
atRp691
sS'liver cirrhosis, biliary'
p692
g3
((lp693
g67
ag53
ag303
ag90
ag7
ag184
ag65
ag94
ag583
ag365
ag374
aS'DB00166'
p694
ag116
ag73
ag16
atRp695
sS'essential tremor'
p696
g3
((lp697
g23
ag629
ag538
aS'DB00794'
p698
ag546
ag635
ag144
ag636
atRp699
sS'testicular neoplasms'
p700
g3
((lp701
g338
ag285
ag291
ag397
ag299
ag303
ag205
ag206
aS'DB00255'
p702
ag295
ag537
ag152
aS'DB01179'
p703
aS'DB01033'
p704
ag213
ag241
ag110
ag116
ag87
ag341
ag90
ag95
ag73
ag399
ag575
atRp705
sS'primary myelofibrosis'
p706
g3
((lp707
g300
ag341
ag340
ag513
ag90
ag231
aS'DB08910'
p708
ag291
aS'DB00236'
p709
ag11
ag116
ag30
ag574
ag515
aS'DB01406'
p710
aS'DB00261'
p711
ag73
ag290
atRp712
sS'urolithiasis'
p713
g3
((lp714
S'DB00706'
p715
aS'DB01072'
p716
atRp717
sS'encephalitis, herpes simplex'
p718
g3
((lp719
g424
atRp720
sS'familial mediterranean fever'
p721
g3
((lp722
g659
ag65
ag73
ag90
atRp723
sS'glioma'
p724
g3
((lp725
g138
ag338
aS'DB00134'
p726
ag404
ag339
ag285
ag46
ag299
ag44
ag368
ag303
aS'DB01196'
p727
ag592
ag343
ag25
ag304
ag569
ag292
ag398
ag370
ag295
ag36
ag130
aS'DB00128'
p728
ag703
aS'DB00142'
p729
ag372
aS'DB00122'
p730
aS'DB00317'
p731
ag241
ag320
ag305
ag92
aS'DB00530'
p732
aS'DB01004'
p733
ag293
ag312
atRp734
sS'supranuclear palsy, progressive'
p735
g3
((lp736
g538
aS'DB06262'
p737
atRp738
sS'diabetic nephropathies'
p739
g3
((lp740
g96
ag38
ag39
ag59
ag456
ag45
ag19
ag53
ag80
ag57
ag682
ag664
ag694
ag311
ag49
ag66
ag459
ag67
ag71
ag72
ag464
ag502
aS'DB00806'
p741
aS'DB00808'
p742
ag88
ag688
ag93
ag37
ag466
ag98
ag83
ag104
atRp743
sS'bone diseases'
p744
g3
((lp745
g210
ag197
ag51
ag90
ag511
ag203
ag604
ag42
ag10
ag11
ag211
ag7
ag217
ag73
ag14
ag15
ag16
ag17
ag12
atRp746
sS'adrenocortical carcinoma'
p747
g3
((lp748
g529
ag338
ag154
ag156
atRp749
sS'severe combined immunodeficiency'
p750
g3
((lp751
g131
ag133
atRp752
sS'bone resorption'
p753
g3
((lp754
g198
ag403
ag11
ag229
ag13
aS'DB05260'
p755
ag202
ag12
ag366
aS'DB00990'
p756
ag205
ag204
ag7
ag203
ag16
ag17
ag18
ag210
ag15
ag211
ag212
aS'DB00172'
p757
ag10
ag14
ag216
ag217
aS'DB00712'
p758
atRp759
sS'celiac disease'
p760
g3
((lp761
g386
ag245
ag90
ag229
aS'DB00581'
p762
ag38
ag249
aS'DB00522'
p763
ag7
ag364
ag30
ag73
ag16
atRp764
sS'kallmann syndrome'
p765
g3
((lp766
g206
ag537
ag213
ag152
atRp767
sS'hydrops fetalis'
p768
g3
((lp769
g129
ag79
ag148
ag134
atRp770
sS'intracranial aneurysm'
p771
g3
((lp772
S'DB00513'
p773
ag86
aS'DB00753'
p774
ag44
ag658
ag660
ag266
aS'DB01113'
p775
ag38
ag269
aS'DB01116'
p776
ag675
aS'DB00813'
p777
aS'DB00393'
p778
aS'DB00302'
p779
aS'DB01093'
p780
ag532
aS'DB00622'
p781
aS'DB00818'
p782
ag236
atRp783
sS'pemphigus, benign familial'
p784
g3
((lp785
g88
atRp786
sS'liposarcoma'
p787
g3
((lp788
g299
ag87
atRp789
sS'alkaptonuria'
p790
g3
((lp791
g384
aS'DB00348'
p792
ag648
aS'DB00120'
p793
atRp794
sS'nutrition disorders'
p795
g3
((lp796
g546
ag364
aS'DB00140'
p797
ag326
ag384
ag431
ag476
ag386
ag7
ag30
ag389
ag16
atRp798
sS'periodontitis'
p799
g3
((lp800
g286
ag226
ag168
ag419
ag271
ag76
ag229
ag216
ag352
ag281
ag758
ag366
ag420
atRp801
sS'hypertrophy'
p802
g3
((lp803
g138
ag130
ag320
ag39
ag152
ag206
ag45
ag213
ag154
ag456
aS'DB01407'
p804
ag453
ag97
ag455
ag311
ag205
ag66
atRp805
sS'bone diseases, developmental'
p806
g3
((lp807
g511
ag7
ag16
atRp808
sS'endometrial neoplasms'
p809
g3
((lp810
S'DB00655'
p811
ag200
aS'DB00286'
p812
ag299
ag268
aS'DB01217'
p813
ag369
ag205
aS'DB00834'
p814
ag710
aS'DB00351'
p815
ag198
ag537
aS'DB00947'
p816
ag214
ag372
ag562
ag241
aS'DB00539'
p817
aS'DB01006'
p818
ag557
ag218
ag285
atRp819
sS'anemia, hemolytic, autoimmune'
p820
g3
((lp821
g270
ag67
ag53
ag133
ag704
ag231
ag90
ag95
ag81
ag436
ag710
aS'DB00242'
p822
ag116
ag73
ag340
ag131
aS'DB01330'
p823
ag295
atRp824
sS'limb deformities, congenital'
p825
g3
((lp826
g386
ag413
ag325
aS'DB00366'
p827
aS'DB00804'
p828
atRp829
sS'pulmonary alveolar proteinosis'
p830
g3
((lp831
g41
ag182
ag78
atRp832
sS'cerebrovascular disorders'
p833
g3
((lp834
g225
ag252
ag658
ag474
ag660
aS'DB00674'
p835
aS'DB01412'
p836
aS'DB00320'
p837
aS'DB04841'
p838
ag60
ag325
ag185
ag494
ag44
aS'DB00568'
p839
ag781
ag550
ag457
ag187
ag270
ag236
ag775
ag776
ag778
ag741
aS'DB00699'
p840
aS'DB04838'
p841
ag456
ag581
ag92
aS'DB00436'
p842
ag656
atRp843
sS'acidosis'
p844
g3
((lp845
S'DB01213'
p846
ag324
aS'DB01144'
p847
ag502
ag38
ag266
ag463
ag42
ag233
aS'DB00119'
p848
ag162
ag97
aS'DB00160'
p849
ag468
ag76
ag431
ag636
ag782
ag325
atRp850
sS'digestive system neoplasms'
p851
g3
((lp852
g307
ag308
ag302
atRp853
sS'metabolic syndrome x'
p854
g3
((lp855
g96
aS'DB00159'
p856
ag7
aS'DB00973'
p857
ag49
ag649
aS'DB04861'
p858
ag682
ag206
aS'DB00627'
p859
ag16
ag653
ag580
ag673
aS'DB06155'
p860
ag71
aS'DB00334'
p861
ag213
ag583
ag502
ag688
aS'DB01083'
p862
ag655
ag605
atRp863
sS'amino acid transport disorders, inborn'
p864
g3
((lp865
g36
aS'DB00123'
p866
atRp867
sS'holocarboxylase synthetase deficiency'
p868
g3
((lp869
S'DB00121'
p870
atRp871
sS'conjunctivitis'
p872
g3
((lp873
g197
aS'DB00634'
p874
ag245
ag281
ag412
ag90
ag229
aS'DB08799'
p875
ag246
ag549
aS'DB00595'
p876
aS'DB00324'
p877
aS'DB06711'
p878
ag292
ag425
ag293
aS'DB00249'
p879
ag105
atRp880
sS'myoclonic epilepsy, juvenile'
p881
g3
((lp882
g636
ag629
ag284
ag633
ag635
atRp883
sS'blood protein disorders'
p884
g3
((lp885
g90
ag291
ag95
ag581
ag116
ag73
atRp886
sS'keratoconus'
p887
g3
((lp888
g797
atRp889
sS'central nervous system viral diseases'
p890
g3
((lp891
g424
atRp892
sS'precursor b-cell lymphoblastic leukemia-lymphoma'
p893
g3
((lp894
g299
ag341
aS'DB00694'
p895
ag303
ag90
ag704
ag293
ag95
ag292
ag73
ag338
ag295
atRp896
sS'jaundice'
p897
g3
((lp898
S'DB01051'
p899
ag257
ag224
ag232
ag90
ag474
ag266
ag631
ag475
aS'DB06150'
p900
ag558
aS'DB06710'
p901
ag260
ag30
ag73
ag264
atRp902
sS'granulomatous disease, chronic'
p903
g3
((lp904
g51
aS'DB01263'
p905
ag614
ag620
ag279
ag239
ag515
atRp906
sS'meningococcal infections'
p907
g3
((lp908
S'DB01212'
p909
ag227
ag273
ag257
ag229
ag236
ag358
ag246
ag43
ag271
aS'DB00359'
p910
ag232
atRp911
sS'leprosy'
p912
g3
((lp913
g197
ag224
aS'DB00845'
p914
ag90
ag278
ag316
ag264
ag232
ag900
aS'DB01145'
p915
ag249
aS'DB01208'
p916
ag271
ag260
ag172
ag167
aS'DB00260'
p917
ag257
atRp918
sS'cardiomyopathy, hypertrophic'
p919
g3
((lp920
g129
ag130
ag546
ag463
ag461
ag474
aS'DB00960'
p921
ag142
ag549
ag465
ag44
ag665
ag470
ag144
ag678
ag138
ag672
ag668
ag143
atRp922
sS'propionic acidemia'
p923
g3
((lp924
S'DB06775'
p925
atRp926
sS'urogenital neoplasms'
p927
g3
((lp928
g299
ag303
ag95
ag397
ag110
ag702
ag399
ag295
atRp929
sS'malaria'
p930
g3
((lp931
g136
aS'DB00772'
p932
ag590
ag507
aS'DB00613'
p933
ag364
ag30
aS'DB06697'
p934
ag286
ag239
aS'DB01218'
p935
ag279
ag249
aS'DB01131'
p936
ag910
aS'DB00358'
p937
aS'DB06708'
p938
ag352
ag512
ag29
ag900
aS'DB01117'
p939
ag139
aS'DB04930'
p940
aS'DB01087'
p941
aS'DB00431'
p942
atRp943
sS'ichthyosis'
p944
g3
((lp945
g386
ag413
ag409
aS'DB04573'
p946
ag412
atRp947
sS'vitiligo'
p948
g3
((lp949
g494
ag88
aS'DB04571'
p950
ag11
ag571
aS'DB00600'
p951
ag414
ag793
aS'DB00360'
p952
ag538
ag591
ag415
ag914
ag117
atRp953
sS'urologic neoplasms'
p954
g3
((lp955
g299
ag87
ag241
ag303
ag95
ag285
ag301
ag110
ag399
ag280
atRp956
sS'mucopolysaccharidoses'
p957
g3
((lp958
g444
aS'DB08818'
p959
ag445
ag236
atRp960
sS'meningeal neoplasms'
p961
g3
((lp962
g338
aS'DB04572'
p963
ag299
ag44
ag303
ag293
ag814
ag569
ag292
ag398
ag295
ag307
ag704
ag73
ag731
ag341
ag895
ag90
ag95
ag732
aS'DB01578'
p964
ag574
ag312
atRp965
sS'lymphoma, b-cell'
p966
g3
((lp967
g302
ag339
ag291
ag338
ag299
ag303
ag369
ag293
ag292
ag294
ag295
ag340
ag110
ag116
ag87
ag341
ag342
ag90
ag95
ag822
ag73
ag312
atRp968
sS'factor xi deficiency'
p969
g3
((lp970
g779
aS'DB00035'
p971
atRp972
sS'muscular atrophy, spinal'
p973
g3
((lp974
g324
ag633
aS'DB00740'
p975
atRp976
sS'coronary disease'
p977
g3
((lp978
g645
ag646
ag647
ag777
ag660
ag49
ag649
ag650
ag136
ag652
ag653
aS'DB01074'
p979
ag86
aS'DB01088'
p980
ag655
ag468
ag99
aS'DB01244'
p981
ag470
ag657
ag579
ag138
aS'DB00598'
p982
ag658
ag474
aS'DB01102'
p983
ag661
aS'DB00590'
p984
ag857
ag141
ag142
ag494
ag52
ag326
aS'DB00375'
p985
ag145
ag64
ag129
ag130
ag463
ag461
ag236
ag921
ag775
ag549
ag465
ag144
ag667
ag668
ag147
ag93
ag454
ag131
aS'DB00227'
p986
ag364
ag582
aS'DB01193'
p987
ag80
ag153
ag859
ag781
ag672
ag198
ag580
ag673
ag133
ag134
ag458
ag137
ag675
ag139
ag581
ag678
ag856
ag225
ag252
ag680
aS'DB04880'
p988
ag684
ag550
ag143
ag135
aS'DB01427'
p989
ag464
ag583
ag686
ag79
ag185
ag456
ag495
ag690
atRp990
sS'activated protein c resistance'
p991
g3
((lp992
g494
ag236
ag199
ag495
ag561
ag557
atRp993
sS'intestinal neoplasms'
p994
g3
((lp995
g307
ag300
ag95
ag373
ag378
ag295
atRp996
sS'prion diseases'
p997
g3
((lp998
g590
aS'DB00536'
p999
aS'DB00686'
p1000
atRp1001
sS'lung neoplasms'
p1002
g3
((lp1003
g302
ag963
ag301
ag306
ag285
ag291
ag397
ag310
ag68
ag367
aS'DB00642'
p1004
ag299
ag303
ag115
ag369
ag343
ag247
ag569
ag398
ag386
ag294
ag370
ag339
aS'DB00184'
p1005
aS'DB00276'
p1006
ag295
ag307
ag237
ag114
ag304
ag703
ag214
aS'DB00488'
p1007
ag372
ag373
ag529
ag241
ag110
ag731
ag399
ag14
ag572
ag182
ag342
ag338
ag87
aS'DB05294'
p1008
ag895
ag305
aS'DB00515'
p1009
ag316
ag95
ag732
ag155
ag17
ag514
ag308
ag280
ag377
ag375
ag575
ag312
atRp1010
sS'amyloid neuropathies, familial'
p1011
g3
((lp1012
g664
ag726
atRp1013
sS'pseudoxanthoma elasticum'
p1014
g3
((lp1015
g209
ag94
atRp1016
sS'osteolysis'
p1017
g3
((lp1018
g210
ag211
ag203
ag291
ag366
ag216
ag294
ag12
ag14
ag17
ag217
atRp1019
sS'arbovirus infections'
p1020
g3
((lp1021
g95
atRp1022
sS'angiomatosis'
p1023
g3
((lp1024
g44
ag382
ag388
atRp1025
sS'monosomy'
p1026
g3
((lp1027
g341
atRp1028
sS'gestational trophoblastic disease'
p1029
g3
((lp1030
g302
ag303
ag95
ag397
ag338
ag295
atRp1031
sS'hearing loss'
p1032
g3
((lp1033
g909
ag68
ag105
ag55
ag101
ag285
ag74
ag292
ag293
atRp1034
sS'lung diseases, interstitial'
p1035
g3
((lp1036
g300
ag302
ag231
ag59
ag52
ag53
ag303
ag435
ag57
ag301
ag129
ag67
aS'DB00559'
p1037
ag731
ag110
ag182
ag90
ag91
ag95
ag732
ag280
ag733
ag73
atRp1038
sS'sleep disorders, circadian rhythm'
p1039
g3
((lp1040
S'DB01065'
p1041
aS'DB06594'
p1042
aS'DB00425'
p1043
aS'DB00745'
p1044
ag156
atRp1045
sS'hereditary autoinflammatory diseases'
p1046
g3
((lp1047
g65
atRp1048
sS'anemia, sideroblastic'
p1049
g3
((lp1050
g224
ag364
ag511
ag246
ag30
ag476
atRp1051
sS'telangiectasis'
p1052
g3
((lp1053
g382
aS'DB00464'
p1054
ag567
aS'DB06811'
p1055
ag591
ag388
atRp1056
sS'respiratory insufficiency'
p1057
g3
((lp1058
S'DB00899'
p1059
ag231
ag233
aS'DB01430'
p1060
ag777
ag847
ag141
ag782
aS'DB00683'
p1061
aS'DB00561'
p1062
aS'DB01199'
p1063
aS'DB01400'
p1064
aS'DB00545'
p1065
aS'DB00708'
p1066
aS'DB01337'
p1067
ag187
aS'DB00921'
p1068
ag266
aS'DB00295'
p1069
aS'DB00297'
p1070
aS'DB00802'
p1071
aS'DB00844'
p1072
aS'DB01183'
p1073
aS'DB00829'
p1074
ag140
ag89
ag90
ag185
aS'DB00454'
p1075
ag188
ag73
ag189
ag146
aS'DB01452'
p1076
atRp1077
sS'wounds and injuries'
p1078
g3
((lp1079
g532
ag324
ag546
ag245
aS'DB05245'
p1080
ag959
aS'DB00336'
p1081
ag215
ag233
ag156
ag251
ag779
ag141
ag236
ag495
atRp1082
sS'hidradenitis'
p1083
g3
((lp1084
g341
atRp1085
sS'pancreatitis'
p1086
g3
((lp1087
g546
aS'DB00738'
p1088
ag617
aS'DB00501'
p1089
ag53
aS'DB00782'
p1090
ag763
aS'DB00403'
p1091
ag64
ag17
ag307
ag253
ag633
ag24
aS'DB00900'
p1092
ag86
ag90
ag676
ag276
ag1075
aS'DB01124'
p1093
ag282
ag103
aS'DB06655'
p1094
atRp1095
sS'myotonic dystrophy'
p1096
g3
((lp1097
g782
ag1044
ag233
ag137
atRp1098
sS'angioedemas, hereditary'
p1099
g3
((lp1100
g710
ag779
ag676
atRp1101
sS'pyruvate dehydrogenase complex deficiency disease'
p1102
g3
((lp1103
g431
ag849
ag848
atRp1104
sS'choroid diseases'
p1105
g3
((lp1106
g519
ag382
ag90
ag231
ag388
ag73
ag390
atRp1107
sS'headache disorders, primary'
p1108
g3
((lp1109
g403
atRp1110
sS'chondrodysplasia punctata'
p1111
g3
((lp1112
g494
atRp1113
sS'carotid stenosis'
p1114
g3
((lp1115
g86
ag325
ag673
ag658
ag660
ag46
aS'DB00743'
p1116
ag655
ag44
aS'DB06705'
p1117
ag653
ag236
ag690
atRp1118
sS'gitelman syndrome'
p1119
g3
((lp1120
g66
atRp1121
sS'cerebral ventricle neoplasms'
p1122
g3
((lp1123
g964
ag44
atRp1124
sS'pigmentation disorders'
p1125
g3
((lp1126
g129
ag519
ag29
ag914
ag1080
ag548
ag229
ag508
ag951
ag154
ag249
ag474
ag271
ag110
ag388
ag570
ag515
ag475
ag117
ag538
atRp1127
sS'demyelinating diseases'
p1128
g3
((lp1129
g36
ag728
ag90
ag316
ag231
aS'DB06637'
p1130
ag730
ag97
ag73
aS'DB00756'
p1131
atRp1132
sS'hepadnaviridae infections'
p1133
g3
((lp1134
S'DB00943'
p1135
aS'DB00709'
p1136
aS'DB00299'
p1137
ag424
atRp1138
sS'anemia, hypochromic'
p1139
g3
((lp1140
g364
ag511
ag476
ag38
ag384
ag30
ag389
atRp1141
sS'fibrous dysplasia of bone'
p1142
g3
((lp1143
g7
ag16
ag17
ag152
ag12
atRp1144
sS'cerebral palsy'
p1145
g3
((lp1146
g1074
ag6
ag538
aS'DB01219'
p1147
aS'DB00697'
p1148
ag633
aS'DB00395'
p1149
ag12
aS'DB00181'
p1150
aS'DB00376'
p1151
atRp1152
sS'aortic aneurysm, abdominal'
p1153
g3
((lp1154
g86
ag44
ag5
ag673
ag236
aS'DB00778'
p1155
ag352
ag99
atRp1156
sS'camurati-engelmann syndrome'
p1157
g3
((lp1158
g90
atRp1159
sS'lupus erythematosus, systemic'
p1160
g3
((lp1161
g197
ag224
ag590
ag231
ag59
ag29
ag710
ag53
ag303
ag94
ag57
ag249
ag630
ag271
ag457
ag67
ag31
ag704
ag137
ag139
ag116
ag90
ag238
ag316
ag95
ag73
atRp1162
sS'intracranial hypertension'
p1163
g3
((lp1164
g269
ag729
ag38
ag848
ag782
ag325
atRp1165
sS'abnormalities, multiple'
p1166
g3
((lp1167
g412
ag590
ag413
ag633
aS'DB01236'
p1168
ag250
aS'DB00347'
p1169
atRp1170
sS'gastrointestinal stromal tumors'
p1171
g3
((lp1172
g572
ag309
aS'DB05271'
p1173
ag155
ag300
atRp1174
sS'brugada syndrome'
p1175
g3
((lp1176
g147
ag148
ag135
ag136
ag139
ag141
ag782
atRp1177
sS'hyperparathyroidism, primary'
p1178
g3
((lp1179
g7
ag11
ag16
ag9
atRp1180
sS'leukemia, myeloid, acute'
p1181
g3
((lp1182
g300
ag338
ag614
ag11
aS'DB01169'
p1183
ag339
ag231
ag291
aS'DB04865'
p1184
ag342
ag372
ag367
ag299
ag51
ag303
ag413
aS'DB00520'
p1185
ag133
ag780
ag294
aS'DB01258'
p1186
ag1006
ag295
aS'DB00352'
p1187
ag290
ag67
ag340
ag114
ag703
ag704
aS'DB01177'
p1188
ag620
ag73
ag320
ag116
ag399
ag572
ag575
ag341
ag895
ag905
ag305
ag90
ag95
ag822
aS'DB00631'
p1189
ag377
ag574
aS'DB00196'
p1190
ag515
ag131
ag312
atRp1191
sS'maple syrup urine disease'
p1192
g3
((lp1193
S'DB00117'
p1194
ag453
ag648
ag726
ag431
ag193
aS'DB00155'
p1195
ag664
ag793
ag757
aS'DB00167'
p1196
atRp1197
sS'carcinoma, bronchogenic'
p1198
g3
((lp1199
g299
ag87
ag338
ag303
ag305
ag703
ag40
ag1007
ag95
ag154
ag17
ag308
ag110
ag339
ag399
ag575
ag295
ag114
atRp1200
sS'cushing syndrome'
p1201
g3
((lp1202
g197
ag40
ag814
ag528
ag154
ag531
aS'DB00503'
p1203
ag161
ag293
ag176
ag292
ag206
ag530
ag388
ag591
ag533
ag17
ag66
ag971
ag307
ag213
ag529
ag532
ag156
aS'DB01200'
p1204
ag90
ag73
aS'DB00434'
p1205
atRp1206
sS'malignant hyperthermia'
p1207
g3
((lp1208
S'DB00228'
p1209
ag774
ag253
aS'DB01189'
p1210
ag1168
ag233
aS'DB00201'
p1211
ag266
ag137
ag269
ag230
ag782
ag1067
ag1147
atRp1212
sS'stiff-person syndrome'
p1213
g3
((lp1214
g1074
ag632
ag1150
atRp1215
sS'myotonia congenita'
p1216
g3
((lp1217
g666
ag233
ag137
ag250
ag145
ag325
atRp1218
sS'blood group incompatibility'
p1219
g3
((lp1220
g88
ag53
ag946
ag90
ag59
ag231
ag57
ag38
ag67
ag236
atRp1221
sS'psoriasis'
p1222
g3
((lp1223
g364
ag950
ag11
aS'DB00139'
p1224
aS'DB01047'
p1225
aS'DB00223'
p1226
ag59
aS'DB00596'
p1227
ag415
ag367
aS'DB00936'
p1228
ag53
ag303
ag413
ag57
ag292
ag386
ag7
aS'DB01130'
p1229
ag388
ag591
aS'DB00547'
p1230
ag567
aS'DB00764'
p1231
ag67
ag114
ag31
ag571
ag156
ag409
aS'DB08908'
p1232
ag88
ag410
ag16
ag412
aS'DB00846'
p1233
ag90
ag574
ag117
atRp1234
sS'phosphorus metabolism disorders'
p1235
g3
((lp1236
g11
ag7
ag42
ag62
ag16
ag17
ag18
atRp1237
sS'mucinoses'
p1238
g3
((lp1239
g959
atRp1240
sS'fibrosarcoma'
p1241
g3
((lp1242
g299
ag320
ag68
ag291
ag95
ag397
ag308
ag110
ag370
ag366
atRp1243
sS'supratentorial neoplasms'
p1244
g3
((lp1245
g36
ag774
ag1059
ag338
ag305
ag339
ag1168
ag730
ag569
ag398
ag777
ag44
ag782
ag295
ag312
atRp1246
sS'neuroma, acoustic'
p1247
g3
((lp1248
g964
ag44
atRp1249
sS'autoimmune diseases'
p1250
g3
((lp1251
g7
ag231
ag157
ag59
ag365
aS'DB08868'
p1252
ag710
ag53
ag303
ag94
ag435
ag57
ag249
ag1065
ag16
ag457
ag67
ag31
ag122
ag704
ag137
ag374
ag116
ag88
ag90
ag238
ag316
ag95
ag73
ag125
atRp1253
sS'ear diseases'
p1254
g3
((lp1255
g245
ag105
ag54
ag90
ag278
ag293
ag74
ag388
aS'DB00257'
p1256
atRp1257
sS'thrombophilia'
p1258
g3
((lp1259
g494
ag364
ag644
ag654
ag658
ag660
ag201
aS'DB06228'
p1260
ag561
ag663
aS'DB00278'
p1261
ag495
ag209
ag574
ag236
ag215
ag711
atRp1262
sS'nail diseases'
p1263
g3
((lp1264
g409
ag110
ag614
aS'DB00857'
p1265
ag508
ag531
ag271
ag241
ag280
ag388
ag574
ag415
aS'DB00400'
p1266
ag410
ag352
atRp1267
sS'infection'
p1268
g3
((lp1269
g611
ag197
ag246
ag338
ag229
ag272
ag231
ag291
ag876
ag30
aS'DB00931'
p1270
ag386
ag51
ag245
ag53
ag303
ag622
ag57
ag239
ag425
ag295
ag227
ag67
ag340
aS'DB00713'
p1271
ag704
ag63
ag59
ag74
ag341
ag56
ag82
ag342
ag261
ag88
ag895
ag105
ag90
ag278
ag95
ag17
ag822
ag281
ag73
ag515
ag273
atRp1272
sS'polycythemia vera'
p1273
g3
((lp1274
g300
ag1009
ag291
ag38
ag709
ag116
ag30
ag574
ag515
ag711
atRp1275
sS'bulbar palsy, progressive'
p1276
g3
((lp1277
g538
atRp1278
sS'occupational diseases'
p1279
g3
((lp1280
g508
ag25
ag266
aS'DB00226'
p1281
aS'DB06439'
p1282
ag1186
ag477
ag182
ag942
atRp1283
sS'anemia, megaloblastic'
p1284
g3
((lp1285
g320
ag302
ag303
ag238
ag431
ag507
ag279
aS'DB00200'
p1286
ag239
ag364
ag30
ag726
atRp1287
sS'mycoses'
p1288
g3
((lp1289
S'DB01141'
p1290
ag531
aS'DB01127'
p1291
ag51
ag368
ag614
ag1265
ag1185
ag279
aS'DB00525'
p1292
ag239
ag1256
ag1266
aS'DB00646'
p1293
aS'DB01110'
p1294
ag620
ag905
ag90
aS'DB01188'
p1295
aS'DB00826'
p1296
aS'DB00362'
p1297
ag124
ag73
ag1190
atRp1298
sS'conjunctival diseases'
p1299
g3
((lp1300
g519
ag387
aS'DB00484'
p1301
ag90
ag877
ag249
ag308
aS'DB00905'
p1302
atRp1303
sS'pregnancy complications'
p1304
g3
((lp1305
g197
ag811
ag364
ag946
ag6
ag7
ag201
ag157
aS'DB00737'
p1306
ag154
ag365
ag812
ag30
ag389
ag244
ag182
ag53
ag94
ag205
ag122
ag58
ag558
ag386
ag250
ag123
ag702
ag476
ag1005
ag1065
ag16
ag633
ag971
aS'DB00929'
p1307
ag1204
ag828
aS'DB00107'
p1308
ag31
ag1068
ag704
ag236
ag631
ag73
aS'DB00333'
p1309
ag75
ag793
ag156
ag374
ag10
ag562
aS'DB00882'
p1310
aS'DB00867'
p1311
ag90
ag238
ag698
ag475
ag495
ag209
ag827
ag282
ag284
ag125
ag1169
ag1076
atRp1312
sS'leukopenia'
p1313
g3
((lp1314
g302
ag963
ag301
ag306
ag285
ag291
ag310
ag338
ag367
ag299
ag244
ag53
ag303
ag94
ag369
ag343
ag57
ag247
ag398
ag239
ag308
ag1186
ag1006
ag295
ag1187
ag114
ag304
ag703
ag704
ag1188
ag59
ag372
ag1007
ag241
ag110
ag116
ag342
ag339
ag87
ag341
ag895
ag305
ag90
ag238
ag95
aS'DB01610'
p1315
ag514
ag605
ag280
ag733
ag73
ag399
ag515
ag575
ag312
atRp1316
sS'carcinoma, renal cell'
p1317
g3
((lp1318
g299
ag86
ag52
ag377
ag412
ag214
aS'DB06626'
p1319
ag306
ag301
ag155
ag44
aS'DB06287'
p1320
aS'DB06589'
p1321
ag671
ag310
ag399
ag14
ag572
atRp1322
sS'skin diseases'
p1323
g3
((lp1324
g197
ag25
ag1131
ag229
ag1225
ag567
ag46
ag154
ag876
ag292
ag389
ag415
ag386
ag494
ag245
ag161
ag411
ag94
ag413
ag57
ag780
ag249
ag251
ag388
ag591
ag1266
ag356
ag231
ag240
ag1293
ag29
ag31
ag53
ag571
ag414
ag156
ag409
ag116
ag572
ag15
ag303
ag88
ag914
ag412
ag90
ag1233
aS'DB00240'
p1325
ag124
ag73
ag117
atRp1326
sS'ventricular fibrillation'
p1327
g3
((lp1328
g138
aS'DB01154'
p1329
ag141
ag6
ag40
aS'DB00206'
p1330
aS'DB00204'
p1331
ag233
aS'DB00816'
p1332
ag455
ag142
ag144
ag5
ag662
ag147
ag140
ag981
ag136
aS'DB00312'
p1333
aS'DB01092'
p1334
ag134
ag250
ag651
ag145
ag672
ag458
ag129
ag130
ag674
ag132
ag666
ag70
ag462
ag135
aS'DB00217'
p1335
ag549
ag266
ag76
ag675
ag79
ag139
ag137
ag470
ag148
ag86
ag64
ag669
ag469
ag678
ag146
ag143
atRp1336
sS'blood platelet disorders'
p1337
g3
((lp1338
g773
ag462
ag658
ag474
ag8
ag236
ag468
ag971
ag73
ag515
atRp1339
sS'cataract'
p1340
g3
((lp1341
g326
ag597
ag383
ag90
ag384
ag73
ag38
ag986
ag621
ag797
ag308
ag97
ag181
ag311
ag390
ag117
ag48
ag388
atRp1342
sS'glomerulonephritis, iga'
p1343
g3
((lp1344
g856
ag67
ag53
ag39
ag90
ag474
ag45
ag59
ag57
ag95
ag73
ag231
ag83
atRp1345
sS'muscular dystrophy, oculopharyngeal'
p1346
g3
((lp1347
g849
atRp1348
sS'cleft lip'
p1349
g3
((lp1350
g250
ag364
ag266
atRp1351
sS'adrenoleukodystrophy'
p1352
g3
((lp1353
g730
ag986
atRp1354
sS'growth hormone-secreting pituitary adenoma'
p1355
g3
((lp1356
g307
aS'DB06663'
p1357
aS'DB00248'
p1358
atRp1359
sS'anemia, dyserythropoietic, congenital'
p1360
g3
((lp1361
g511
ag30
atRp1362
sS'hyperlipoproteinemia type ii'
p1363
g3
((lp1364
g653
ag580
ag245
ag649
ag673
ag650
ag153
ag583
ag986
ag579
ag655
ag859
ag581
ag857
ag985
ag236
ag582
atRp1365
sS'hyperhomocysteinemia'
p1366
g3
((lp1367
g364
ag726
ag538
ag41
ag24
aS'DB00118'
p1368
ag476
ag189
aS'DB00494'
p1369
atRp1370
sS'hypereosinophilic syndrome'
p1371
g3
((lp1372
g300
ag309
ag90
ag231
ag574
ag1173
ag73
atRp1373
sS'carcinoma, neuroendocrine'
p1374
g3
((lp1375
g307
ag285
ag338
ag304
atRp1376
sS'carcinoma in situ'
p1377
g3
((lp1378
g299
ag25
ag963
ag369
ag200
ag414
ag44
ag702
ag308
aS'DB00385'
p1379
ag370
atRp1380
sS'glaucoma'
p1381
g3
((lp1382
g519
ag197
ag847
aS'DB00979'
p1383
aS'DB08808'
p1384
ag877
aS'DB00677'
p1385
ag520
aS'DB00287'
p1386
ag455
ag325
aS'DB01210'
p1387
aS'DB00449'
p1388
aS'DB01214'
p1389
ag293
aS'DB00521'
p1390
ag292
ag521
aS'DB00703'
p1391
ag388
ag1064
ag140
ag959
aS'DB08819'
p1392
aS'DB00944'
p1393
ag1301
aS'DB00311'
p1394
ag462
ag38
aS'DB01170'
p1395
aS'DB00964'
p1396
ag1302
aS'DB00470'
p1397
ag387
aS'DB00981'
p1398
ag90
aS'DB00411'
p1399
aS'DB00869'
p1400
ag621
ag308
aS'DB01194'
p1401
ag390
aS'DB00195'
p1402
ag146
ag539
atRp1403
sS'polyneuropathies'
p1404
g3
((lp1405
g224
ag53
ag90
ag91
aS'DB00822'
p1406
ag231
ag476
ag431
ag73
ag295
atRp1407
sS'osteosarcoma'
p1408
g3
((lp1409
g299
ag87
ag320
ag302
ag303
ag291
ag11
ag413
ag285
ag95
ag397
ag292
ag202
ag366
ag44
ag110
ag293
ag14
ag338
ag16
ag295
atRp1410
sS'osteogenesis imperfecta'
p1411
g3
((lp1412
S'DB00133'
p1413
ag7
ag41
ag193
ag216
ag12
ag757
ag14
ag16
ag17
atRp1414
sS'von willebrand disease, type 2'
p1415
g3
((lp1416
g971
atRp1417
sS'keratitis'
p1418
g3
((lp1419
g197
ag167
ag614
aS'DB00892'
p1420
aS'DB01044'
p1421
ag531
ag51
ag245
ag55
ag293
ag424
ag292
ag877
ag251
ag172
ag1293
ag67
ag178
ag1294
ag620
aS'DB00807'
p1422
ag69
ag105
ag90
ag101
ag358
ag1296
ag874
ag73
ag283
ag1190
ag879
aS'DB00432'
p1423
atRp1424
sS'abetalipoproteinemia'
p1425
g3
((lp1426
g386
ag326
atRp1427
sS'paget disease, extramammary'
p1428
g3
((lp1429
g25
ag414
atRp1430
sS'nerve sheath neoplasms'
p1431
g3
((lp1432
g87
atRp1433
sS'mucopolysaccharidosis iv'
p1434
g3
((lp1435
g959
atRp1436
sS'thyroid diseases'
p1437
g3
((lp1438
g129
ag122
ag58
ag123
ag124
ag157
ag17
ag125
atRp1439
sS'stroke'
p1440
g3
((lp1441
g96
ag645
ag225
ag670
ag39
ag658
ag474
ag660
ag432
ag1260
ag201
ag215
ag364
aS'DB06695'
p1442
ag49
ag494
aS'DB00876'
p1443
ag44
ag649
ag646
ag682
ag1261
ag236
ag729
ag653
ag673
aS'DB00215'
p1444
ag458
aS'DB01175'
p1445
ag71
aS'DB08814'
p1446
ag687
aS'DB04855'
p1447
ag476
ag742
aS'DB00843'
p1448
ag37
ag456
ag495
ag655
ag98
aS'DB06605'
p1449
ag209
ag574
ag104
atRp1450
sS'hepatitis b'
p1451
g3
((lp1452
g1136
ag53
ag100
ag90
ag316
ag133
aS'DB00879'
p1453
aS'DB00442'
p1454
ag510
ag1135
ag424
aS'DB00173'
p1455
ag73
aS'DB00426'
p1456
ag193
ag131
ag508
aS'DB00718'
p1457
ag1076
atRp1458
sS'hepatitis c'
p1459
g3
((lp1460
S'DB01601'
p1461
ag231
ag508
aS'DB05521'
p1462
aS'DB00224'
p1463
ag365
ag510
ag30
aS'DB00915'
p1464
ag1203
ag53
aS'DB04900'
p1465
ag57
aS'DB00625'
p1466
ag1136
ag256
ag67
ag1068
ag59
ag757
ag1309
aS'DB00649'
p1467
ag374
ag88
ag90
aS'DB00455'
p1468
ag73
ag1457
ag1076
atRp1469
sS'alopecia areata'
p1470
g3
((lp1471
g67
ag90
ag231
ag388
ag73
ag117
ag467
atRp1472
sS'hiv infections'
p1473
g3
((lp1474
g664
ag224
aS'DB01232'
p1475
ag1461
ag277
ag168
aS'DB00220'
p1476
ag507
ag232
ag169
ag1463
ag531
ag424
aS'DB00615'
p1477
ag510
aS'DB08869'
p1478
ag267
aS'DB08864'
p1479
ag508
ag1454
ag1466
ag51
ag1203
ag614
ag1068
ag1453
aS'DB01319'
p1480
ag249
aS'DB00701'
p1481
aS'DB00621'
p1482
ag100
aS'DB00705'
p1483
ag1136
ag1455
ag256
ag257
ag1462
ag1135
ag716
ag263
ag1315
ag1309
ag414
aS'DB00109'
p1484
ag1467
ag939
aS'DB00529'
p1485
ag1088
ag1190
ag193
ag182
ag1092
ag386
aS'DB04835'
p1486
aS'DB01264'
p1487
aS'DB00932'
p1488
ag1457
aS'DB00577'
p1489
ag733
ag574
ag102
aS'DB01577'
p1490
aS'DB06809'
p1491
ag1076
atRp1492
sS'arrhythmias, cardiac'
p1493
g3
((lp1494
g138
ag1329
ag774
ag225
ag5
ag141
ag1074
ag1209
ag1330
ag97
ag1331
ag35
ag233
ag979
ag1332
ag455
ag142
ag144
aS'DB00986'
p1495
aS'DB01142'
p1496
ag662
ag147
ag470
ag981
ag6
ag1334
ag134
ag250
aS'DB00235'
p1497
ag665
ag1064
ag462
ag548
ag145
ag672
ag652
ag187
ag1447
ag129
ag130
ag989
ag140
ag132
aS'DB01203'
p1498
ag666
ag70
ag253
ag135
ag674
ag549
ag465
ag686
ag675
ag79
ag1070
ag139
ag76
ag269
ag667
aS'DB00321'
p1499
ag987
aS'DB01078'
p1500
aS'DB00458'
p1501
ag148
ag668
ag547
aS'DB00692'
p1502
ag64
ag921
ag1067
ag185
ag266
ag458
ag689
ag136
ag669
ag137
ag651
ag469
ag678
ag146
aS'DB00450'
p1503
aS'DB00308'
p1504
ag143
atRp1505
sS'head and neck neoplasms'
p1506
g3
((lp1507
g302
ag285
ag68
ag1004
ag299
ag44
ag303
ag413
ag301
ag294
ag370
aS'DB01259'
p1508
ag295
ag50
ag114
ag731
ag110
ag376
ag338
ag87
ag241
ag412
ag95
ag732
ag621
ag514
ag308
ag280
ag574
ag399
ag879
ag575
atRp1509
sS'craniosynostoses'
p1510
g3
((lp1511
g633
ag24
ag757
atRp1512
sS'dental pulp diseases'
p1513
g3
((lp1514
S'DB00618'
p1515
ag1282
ag388
atRp1516
sS'herpesviridae infections'
p1517
g3
((lp1518
g1464
ag1485
ag53
ag293
ag424
ag292
ag664
ag1456
ag295
ag67
ag733
ag133
ag1137
ag341
ag90
ag95
ag1468
ag1489
ag1455
ag73
ag102
ag879
ag131
ag1423
atRp1519
sS'adrenal hyperplasia, congenital'
p1520
g3
((lp1521
g197
ag537
ag161
ag152
ag90
aS'DB04839'
p1522
ag213
ag73
ag528
ag154
ag292
ag1310
ag206
ag530
ag293
ag562
ag156
atRp1523
sS'peripheral nervous system neoplasms'
p1524
g3
((lp1525
g44
atRp1526
sS'addison disease'
p1527
g3
((lp1528
g197
ag161
ag90
ag40
ag293
ag232
ag528
ag154
ag292
ag156
ag97
ag530
ag73
ag257
atRp1529
sS'photosensitivity disorders'
p1530
g3
((lp1531
g1515
ag25
ag429
ag1131
ag229
aS'DB00779'
p1532
ag950
ag494
ag411
ag413
ag136
ag60
ag474
ag352
ag370
ag425
ag1266
ag129
ag29
aS'DB01428'
p1533
ag31
ag253
ag414
ag75
ag139
ag378
ag475
ag276
ag439
ag117
atRp1534
sS'osteoarthritis, knee'
p1535
g3
((lp1536
g210
ag228
ag434
ag237
aS'DB01628'
p1537
ag959
ag212
aS'DB01283'
p1538
ag445
ag81
ag77
ag44
ag437
ag352
ag388
ag366
ag189
ag378
aS'DB00193'
p1539
atRp1540
sS'chorea'
p1541
g3
((lp1542
g197
ag244
ag73
ag90
ag474
ag1330
ag633
aS'DB01100'
p1543
aS'DB01622'
p1544
aS'DB00502'
p1545
aS'DB00850'
p1546
ag1468
ag538
ag250
ag632
aS'DB04844'
p1547
ag1464
ag475
ag1074
aS'DB00190'
p1548
atRp1549
sS'hypersensitivity'
p1550
g3
((lp1551
g197
aS'DB00950'
p1552
ag240
aS'DB01069'
p1553
aS'DB00972'
p1554
aS'DB00283'
p1555
ag1468
aS'DB01071'
p1556
aS'DB00233'
p1557
ag262
ag598
ag265
aS'DB00967'
p1558
ag154
ag1205
ag182
ag603
ag90
aS'DB00792'
p1559
ag73
aS'DB00557'
p1560
ag607
atRp1561
sS'purpura, thrombocytopenic'
p1562
g3
((lp1563
g773
ag197
ag232
ag53
ag90
ag704
ag231
ag136
ag95
ag154
ag710
ag139
ag73
ag399
ag295
ag257
atRp1564
sS'leiomyoma'
p1565
g3
((lp1566
g198
ag811
ag537
ag152
ag562
aS'DB00666'
p1567
ag214
ag205
ag200
ag814
ag710
ag812
ag560
ag44
aS'DB00050'
p1568
ag557
ag218
aS'DB06719'
p1569
ag208
atRp1570
sS'genital diseases, male'
p1571
g3
((lp1572
g273
ag152
ag703
ag168
ag213
ag414
ag279
ag229
ag352
ag702
ag281
ag206
atRp1573
sS'retinitis pigmentosa'
p1574
g3
((lp1575
g386
aS'DB06712'
p1576
ag326
ag383
ag757
atRp1577
sS'multiple sclerosis'
p1578
g3
((lp1579
g1041
ag7
ag231
ag1130
ag154
ag1195
aS'DB08880'
p1580
ag1252
ag1464
ag23
ag244
ag44
ag53
ag1147
ag16
ag1150
ag36
ag728
ag1044
ag730
ag1232
ag1397
ag342
ag1148
ag316
ag90
ag95
ag1468
ag822
ag73
atRp1581
sS'amino acid metabolism, inborn errors'
p1582
g3
((lp1583
g1194
ag324
ag1413
ag648
ag726
aS'DB00138'
p1584
ag597
ag1195
ag1368
ag849
ag664
ag1196
ag476
ag36
ag453
ag24
ag490
ag463
ag866
ag793
ag870
ag193
ag1286
ag952
ag792
ag757
atRp1585
sS'dermatitis, atopic'
p1586
g3
((lp1587
S'DB00751'
p1588
ag1231
ag1552
ag1225
ag567
ag59
ag1227
ag1555
aS'DB00815'
p1589
ag240
ag292
ag1229
ag388
ag591
ag1230
ag176
ag67
ag598
ag571
aS'DB00768'
p1590
ag156
ag182
ag356
ag603
ag88
aS'DB01260'
p1591
ag1233
ag1325
ag1560
ag607
atRp1592
sS'polycystic kidney, autosomal dominant'
p1593
g3
((lp1594
S'DB06212'
p1595
ag45
ag52
ag671
atRp1596
sS'thrombotic microangiopathies'
p1597
g3
((lp1598
g88
atRp1599
sS'kidney neoplasms'
p1600
g3
((lp1601
g338
ag306
ag285
ag397
ag310
ag1320
ag671
ag299
ag52
ag303
ag301
ag1321
ag702
ag64
ag295
ag50
ag214
ag1319
ag44
ag110
ag14
ag572
ag86
ag87
ag377
ag305
ag412
ag92
ag95
ag155
ag308
ag399
atRp1602
sS'arthritis'
p1603
g3
((lp1604
g197
ag429
ag1537
ag231
ag235
ag237
ag436
ag366
ag403
ag242
aS'DB00995'
p1605
ag53
ag303
ag77
ag94
ag293
ag440
aS'DB00749'
p1606
ag292
ag388
ag228
ag959
ag29
ag31
aS'DB01399'
p1607
ag84
ag65
ag758
ag434
ag373
ag156
ag81
ag1307
ag439
ag90
ag238
ag316
ag378
ag95
ag437
ag73
ag103
ag435
atRp1608
sS'nephrotic syndrome'
p1609
g3
((lp1610
g197
ag403
ag231
ag291
ag154
ag986
aS'DB00524'
p1611
aS'DB00384'
p1612
ag582
ag299
ag53
ag94
ag57
ag60
ag388
ag66
ag36
ag67
ag114
aS'DB00487'
p1613
ag704
ag59
ag45
ag75
ag116
ag85
ag88
ag89
ag90
ag316
ag80
ag95
ag97
ag73
ag438
atRp1614
sS'adrenal insufficiency'
p1615
g3
((lp1616
g176
ag197
ag97
ag161
ag591
ag90
ag40
ag213
ag231
ag528
ag154
ag292
ag156
ag206
ag530
ag181
ag532
ag73
ag293
ag815
ag184
atRp1617
sS'sarcoma, synovial'
p1618
g3
((lp1619
g299
ag87
ag95
ag295
atRp1620
sS'neuroaxonal dystrophies'
p1621
g3
((lp1622
g30
atRp1623
sS'hypergammaglobulinemia'
p1624
g3
((lp1625
g316
ag73
ag95
ag291
ag90
atRp1626
sS'hyperargininemia'
p1627
g3
((lp1628
g24
ag1195
ag490
atRp1629
sS'heart valve diseases'
p1630
g3
((lp1631
g138
ag644
ag201
ag837
ag777
ag494
ag136
ag129
ag130
ag227
ag461
ag236
ag675
ag79
ag139
ag668
ag69
aS'DB00696'
p1632
ag215
ag209
ag1358
aS'DB00191'
p1633
atRp1634
sS'primary ovarian insufficiency'
p1635
g3
((lp1636
g537
ag152
ag214
ag205
ag200
ag95
ag562
ag218
ag208
atRp1637
sS'ovarian diseases'
p1638
g3
((lp1639
g286
ag811
ag537
ag946
ag152
ag206
ag205
ag293
ag199
ag213
ag558
ag292
ag1310
ag710
ag812
ag562
ag218
ag1569
atRp1640
sS'hypolipoproteinemias'
p1641
g3
((lp1642
g859
ag582
ag579
atRp1643
sS'guillain-barre syndrome'
p1644
g3
((lp1645
g197
ag231
ag154
ag90
atRp1646
sS'color vision defects'
p1647
g3
((lp1648
g79
ag29
ag267
atRp1649
sS'genital neoplasms, female'
p1650
g3
((lp1651
g299
ag87
ag241
aS'DB00889'
p1652
ag285
ag95
ag558
ag710
ag110
ag702
ag562
aS'DB00904'
p1653
atRp1654
sS'kidney calculi'
p1655
g3
((lp1656
g50
ag325
ag16
aS'DB01377'
p1657
ag7
ag92
ag94
aS'DB00551'
p1658
ag1463
ag60
ag11
ag97
ag715
ag76
ag1584
ag476
ag1612
ag103
ag842
ag18
aS'DB01021'
p1659
atRp1660
sS'frostbite'
p1661
g3
((lp1662
g253
ag405
ag236
atRp1663
sS'sudden infant death'
p1664
g3
((lp1665
g1005
ag185
ag182
ag463
ag187
atRp1666
sS'uterine cervical diseases'
p1667
g3
((lp1668
g558
ag281
ag702
atRp1669
sS'infant, premature, diseases'
p1670
g3
((lp1671
g403
ag6
ag7
ag201
ag43
ag1211
ag30
ag16
ag51
ag368
ag1062
ag293
ag292
ag326
ag1067
ag187
ag228
ag1271
ag63
ag631
ag74
ag82
ag105
ag69
ag273
ag89
ag101
ag215
ag209
ag281
ag185
ag1190
atRp1672
sS'heart arrest'
p1673
g3
((lp1674
g138
ag143
ag269
ag5
ag6
ag40
ag233
ag777
ag1332
ag141
ag140
ag782
ag1061
ag148
ag1063
ag136
ag659
ag250
ag462
ag1067
ag129
ag130
ag685
ag133
ag253
ag674
ag38
ag266
ag76
ag675
ag79
ag778
ag1070
ag139
ag137
ag668
ag147
ag103
ag669
ag185
aS'DB00296'
p1675
ag146
ag144
ag470
ag131
atRp1676
sS'thrombasthenia'
p1677
g3
((lp1678
g779
ag647
ag971
atRp1679
sS'alpha 1-antitrypsin deficiency'
p1680
g3
((lp1681
g710
atRp1682
sS'wiskott-aldrich syndrome'
p1683
g3
((lp1684
g515
ag95
atRp1685
sS'intestinal polyposis'
p1686
g3
((lp1687
g90
atRp1688
sS'epilepsy'
p1689
g3
((lp1690
g729
ag628
ag269
ag364
aS'DB05246'
p1691
ag548
ag630
ag227
ag1130
aS'DB06201'
p1692
ag154
ag633
aS'DB01595'
p1693
ag838
ag621
ag1061
ag23
ag244
ag325
aS'DB00466'
p1694
aS'DB01351'
p1695
aS'DB00371'
p1696
aS'DB00837'
p1697
ag7
ag250
aS'DB00230'
p1698
aS'DB00949'
p1699
ag636
aS'DB00186'
p1700
ag16
aS'DB00628'
p1701
aS'DB06218'
p1702
ag1150
ag728
ag632
ag631
ag463
ag1074
ag1149
ag635
aS'DB00474'
p1703
aS'DB00906'
p1704
aS'DB01205'
p1705
ag773
ag629
aS'DB04953'
p1706
aS'DB00475'
p1707
ag475
aS'DB00849'
p1708
ag698
ag637
ag476
aS'DB00532'
p1709
ag634
ag284
ag1169
aS'DB01320'
p1710
atRp1711
sS'hemoglobinopathies'
p1712
g3
((lp1713
g453
ag30
ag574
atRp1714
sS'anemia, hemolytic, congenital'
p1715
g3
((lp1716
g97
ag48
ag468
ag30
atRp1717
sS'arteriosclerosis'
p1718
g3
((lp1719
g856
ag364
ag39
ag658
ag7
ag660
ag836
ag986
ag582
aS'DB08860'
p1720
ag650
ag153
ag326
ag859
ag985
ag476
aS'DB00270'
p1721
ag49
ag653
ag580
ag673
ag384
ag236
ag775
ag675
ag741
ag550
ag104
ag655
ag581
ag189
ag657
ag579
atRp1722
sS'sarcoidosis'
p1723
g3
((lp1724
g197
ag224
ag29
ag53
ag303
ag31
ag90
ag7
ag231
ag11
ag51
ag154
ag44
ag510
ag388
ag73
ag16
atRp1725
sS'low tension glaucoma'
p1726
g3
((lp1727
g521
ag519
atRp1728
sS'leukemia, myeloid, chronic-phase'
p1729
g3
((lp1730
g300
ag341
ag1173
ag1188
ag95
ag1184
ag309
ag574
ag515
aS'DB01254'
p1731
atRp1732
sS'endocardial fibroelastosis'
p1733
g3
((lp1734
g79
atRp1735
sS'sarcoma, alveolar soft part'
p1736
g3
((lp1737
g155
atRp1738
sS'exostoses'
p1739
g3
((lp1740
g412
atRp1741
sS'aortic aneurysm'
p1742
g3
((lp1743
g270
ag1330
ag1282
ag776
ag1395
ag236
ag144
atRp1744
sS'intracranial arteriosclerosis'
p1745
g3
((lp1746
g836
ag658
ag474
ag660
ag775
ag837
ag839
ag538
ag741
ag840
ag187
ag185
atRp1747
sS'bone diseases, metabolic'
p1748
g3
((lp1749
g198
ag11
ag7
ag13
ag201
ag42
ag202
ag12
ag205
ag203
ag16
ag17
ag18
ag210
ag67
ag211
ag212
ag9
ag10
ag14
ag90
ag216
ag217
atRp1750
sS'lymphoma, t-cell, cutaneous'
p1751
g3
((lp1752
g299
aS'DB06813'
p1753
ag409
ag338
ag303
ag90
ag95
ag115
ag414
ag118
ag822
ag375
ag73
ag312
ag117
ag295
ag114
atRp1754
sS'anemia, iron-deficiency'
p1755
g3
((lp1756
g364
ag384
ag8
ag386
ag30
ag389
atRp1757
sS'telangiectasia, hereditary hemorrhagic'
p1758
g3
((lp1759
g199
ag779
atRp1760
sS'noonan syndrome'
p1761
g3
((lp1762
g537
ag152
atRp1763
sS'pre-excitation syndromes'
p1764
g3
((lp1765
g129
ag143
ag131
ag148
ag133
atRp1766
sS'multiple carboxylase deficiency'
p1767
g3
((lp1768
g870
atRp1769
sS'chondrosarcoma'
p1770
g3
((lp1771
g299
ag959
atRp1772
sS'metabolism, inborn errors'
p1773
g3
((lp1774
g1194
ag364
ag648
ag726
ag233
ag1195
ag1286
ag1196
ag476
aS'DB01440'
p1775
ag36
ag453
ag48
ag490
ag463
ag193
ag793
ag870
ag1368
ag637
ag941
ag952
ag103
atRp1776
sS'neuromuscular diseases'
p1777
g3
((lp1778
g244
ag29
ag65
ag463
ag233
ag848
ag250
aS'DB01010'
p1779
ag1064
ag1067
atRp1780
sS'cholestasis'
p1781
g3
((lp1782
g135
aS'DB01361'
p1783
ag67
ag53
ag658
ag474
ag631
ag90
ag558
ag365
ag1368
ag374
ag901
ag201
aS'DB00704'
p1784
ag624
ag326
ag475
ag199
ag48
ag209
atRp1785
sS'factor v deficiency'
p1786
g3
((lp1787
g236
ag201
ag215
ag971
ag209
atRp1788
sS'leukemia, myelomonocytic, chronic'
p1789
g3
((lp1790
g300
ag341
ag377
ag372
ag574
ag338
atRp1791
sS'menkes kinky hair syndrome'
p1792
g3
((lp1793
g1194
ag389
atRp1794
sS'osteonecrosis'
p1795
g3
((lp1796
g210
ag203
ag44
ag90
ag211
ag212
ag231
ag419
ag292
ag293
ag202
ag216
ag12
ag73
ag14
ag217
atRp1797
sS'mouth diseases'
p1798
g3
((lp1799
g286
ag1293
ag51
ag261
ag281
ag614
ag90
ag229
ag1225
ag591
ag419
ag531
ag273
ag388
ag425
ag73
ag1270
ag420
aS'DB00828'
p1800
atRp1801
sS'chondrocalcinosis'
p1802
g3
((lp1803
g65
atRp1804
sS'penile diseases'
p1805
g3
((lp1806
S'DB01614'
p1807
ag404
ag775
ag414
ag1485
ag591
ag703
atRp1808
sS'brain diseases, metabolic, inborn'
p1809
g3
((lp1810
g36
ag463
atRp1811
sS'dwarfism'
p1812
g3
((lp1813
g537
ag152
ag1584
ag24
ag154
ag123
ag530
ag389
atRp1814
sS'vesico-ureteral reflux'
p1815
g3
((lp1816
g50
ag959
aS'DB01062'
p1817
ag91
ag279
ag239
ag64
aS'DB00263'
p1818
atRp1819
sS'esophageal neoplasms'
p1820
g3
((lp1821
g302
ag306
ag285
aS'DB00736'
p1822
ag338
ag299
ag303
ag369
ag25
ag247
ag386
ag370
ag237
ag304
aS'DB00338'
p1823
ag797
ag110
ag241
ag377
ag308
ag280
ag399
ag575
atRp1824
sS'mesothelioma'
p1825
g3
((lp1826
g299
ag87
ag301
ag338
ag1004
ag369
ag95
ag285
ag247
ag959
ag514
ag308
ag733
ag376
ag399
ag182
ag241
atRp1827
sS'epidermolysis bullosa acquisita'
p1828
g3
((lp1829
g67
ag90
ag65
ag59
ag249
ag73
atRp1830
sS'atherosclerosis'
p1831
g3
((lp1832
g856
ag364
ag39
ag658
ag660
aS'DB00222'
p1833
ag857
ag582
ag1720
ag655
ag649
ag650
ag646
ag682
ag326
ag859
ag459
ag653
ag580
ag673
ag860
ag24
ag71
ag688
ag952
ag189
atRp1834
sS'hemochromatosis'
p1835
g3
((lp1836
g511
ag41
ag648
ag509
ag30
atRp1837
sS'parathyroid diseases'
p1838
g3
((lp1839
g7
ag16
ag17
atRp1840
sS'paraplegia'
p1841
g3
((lp1842
g90
ag231
ag775
ag1150
ag1064
ag1147
atRp1843
sS'esophageal fistula'
p1844
g3
((lp1845
g64
atRp1846
sS'hypertension, pregnancy-induced'
p1847
g3
((lp1848
g270
ag982
ag457
ag6
atRp1849
sS'epidermolysis bullosa dystrophica'
p1850
g3
((lp1851
g193
atRp1852
sS'lymphoma, mantle-cell'
p1853
g3
((lp1854
g338
ag291
ag1320
ag299
ag52
ag293
ag301
ag292
ag294
ag295
ag290
ag340
ag133
ag375
ag116
ag341
ag342
ag90
ag95
ag822
ag73
ag131
ag312
atRp1855
sS'skin manifestations'
p1856
g3
((lp1857
g73
ag29
ag273
ag246
ag90
atRp1858
sS'histiocytosis'
p1859
g3
((lp1860
g303
ag90
atRp1861
sS'sprains and strains'
p1862
g3
((lp1863
g228
ag437
ag378
aS'DB00861'
p1864
ag81
ag77
ag1149
ag780
ag439
atRp1865
sS'neoplasms, second primary'
p1866
g3
((lp1867
g300
ag302
ag339
ag200
ag291
ag338
ag299
ag303
ag369
ag413
ag133
ag398
ag295
ag290
ag285
ag340
ag114
ag703
ag704
ag1188
ag73
ag241
ag110
ag116
ag342
ag87
ag341
ag895
ag305
ag412
ag90
ag343
ag95
ag822
ag574
ag399
ag515
ag131
ag118
ag312
atRp1868
sS'adrenal cortex diseases'
p1869
g3
((lp1870
g197
ag161
ag293
ag528
ag154
ag292
ag156
atRp1871
sS'azoospermia'
p1872
g3
((lp1873
g206
ag537
ag213
ag152
atRp1874
sS'gallstones'
p1875
g3
((lp1876
g365
ag374
ag857
aS'DB04711'
p1877
ag1091
ag18
atRp1878
sS'androgen-insensitivity syndrome'
p1879
g3
((lp1880
g811
ag537
ag152
ag206
ag205
ag213
ag812
ag562
atRp1881
sS'epstein-barr virus infections'
p1882
g3
((lp1883
g299
ag88
ag53
ag303
ag338
ag1315
ag59
ag90
ag57
ag95
ag424
ag231
ag67
ag733
ag73
ag340
ag52
ag131
ag295
ag1489
atRp1884
sS'leukemia, prolymphocytic'
p1885
g3
((lp1886
g340
ag90
ag133
ag95
ag118
ag822
ag73
ag131
ag295
atRp1887
sS'mucocutaneous lymph node syndrome'
p1888
g3
((lp1889
g474
ag231
ag90
atRp1890
sS'bacterial infections'
p1891
g3
((lp1892
S'DB00229'
p1893
aS'DB01163'
p1894
ag349
ag167
aS'DB04570'
p1895
ag54
aS'DB00954'
p1896
ag615
aS'DB01415'
p1897
aS'DB01414'
p1898
ag1532
aS'DB00671'
p1899
ag916
aS'DB00467'
p1900
aS'DB00781'
p1901
ag239
ag271
ag352
ag17
aS'DB00766'
p1902
ag619
aS'DB00948'
p1903
ag354
ag74
aS'DB01416'
p1904
ag101
ag622
ag359
ag624
aS'DB00267'
p1905
aS'DB01333'
p1906
ag347
ag226
aS'DB00978'
p1907
ag168
aS'DB00976'
p1908
ag876
ag243
ag51
aS'DB00685'
p1909
ag55
aS'DB00447'
p1910
ag246
ag419
ag279
aS'DB00274'
p1911
ag227
ag178
aS'DB01059'
p1912
ag63
aS'DB01112'
p1913
ag356
ag69
ag348
ag56
ag281
aS'DB01604'
p1914
aS'DB01605'
p1915
aS'DB01606'
p1916
ag612
aS'DB01602'
p1917
ag1421
ag232
aS'DB01597'
p1918
ag420
ag617
aS'DB00911'
p1919
ag613
ag286
ag909
ag350
ag245
ag229
ag251
ag910
ag254
ag1293
aS'DB00485'
p1920
ag1613
ag105
ag257
ag1800
aS'DB00535'
p1921
ag358
ag91
ag623
aS'DB01329'
p1922
aS'DB01328'
p1923
ag283
aS'DB01326'
p1924
aS'DB00430'
p1925
ag611
ag403
ag1080
aS'DB01140'
p1926
ag272
ag43
ag1155
ag255
aS'DB08798'
p1927
ag172
ag823
aS'DB01331'
p1928
aS'DB01332'
p1929
aS'DB00406'
p1930
ag274
aS'DB01155'
p1931
aS'DB01150'
p1932
aS'DB00923'
p1933
aS'DB00607'
p1934
ag82
ag261
ag273
ag351
ag357
aS'DB01220'
p1935
ag1271
atRp1936
sS'mitochondrial diseases'
p1937
g3
((lp1938
g36
ag48
ag463
ag848
ag1368
ag849
ag468
ag694
ag1092
atRp1939
sS'lesch-nyhan syndrome'
p1940
g3
((lp1941
g131
ag133
ag333
ag193
ag1455
ag103
ag1187
atRp1942
sS'adenomatous polyposis coli'
p1943
g3
((lp1944
g366
ag237
ag373
atRp1945
sS'encephalitis'
p1946
g3
((lp1947
g286
ag197
ag341
ag133
ag599
ag507
ag90
ag95
ag424
ag292
ag231
ag1485
ag910
ag733
ag293
ag366
ag189
ag879
ag131
ag729
ag271
atRp1948
sS'lipoma'
p1949
g3
((lp1950
g964
ag44
atRp1951
sS'neurodegenerative diseases'
p1952
g3
((lp1953
g324
ag1041
ag729
ag48
ag520
ag30
ag189
atRp1954
sS'retinopathy of prematurity'
p1955
g3
((lp1956
S'DB00809'
p1957
ag1422
ag1383
ag326
ag94
atRp1958
sS'beta-thalassemia'
p1959
g3
((lp1960
g506
ag511
ag509
ag30
ag574
ag515
atRp1961
sS'hemophilia a'
p1962
g3
((lp1963
g773
ag494
ag215
ag90
ag236
ag201
ag508
ag95
ag710
ag510
ag779
ag971
ag73
ag209
atRp1964
sS'myeloproliferative disorders'
p1965
g3
((lp1966
g300
ag341
ag664
ag574
ag515
ag711
atRp1967
sS'amyotrophic lateral sclerosis'
p1968
g3
((lp1969
g36
ag23
ag728
ag324
ag729
ag849
aS'DB01037'
p1970
ag193
ag975
ag271
ag389
atRp1971
sS'galactosemias'
p1972
g3
((lp1973
g1194
ag648
ag38
ag793
atRp1974
sS'hemophilia b'
p1975
g3
((lp1976
g773
ag494
ag236
ag201
ag215
ag710
ag779
ag971
ag209
atRp1977
sS'anemia, sickle cell'
p1978
g3
((lp1979
g909
ag836
ag377
ag506
ag97
ag511
ag389
ag509
ag1075
ag1069
ag364
ag30
ag1256
ag189
ag574
ag741
atRp1980
sS'movement disorders'
p1981
g3
((lp1982
g548
ag333
ag1330
ag1543
ag632
aS'DB00734'
p1983
ag1547
aS'DB00810'
p1984
aS'DB00387'
p1985
ag1464
ag1468
ag244
ag538
aS'DB06701'
p1986
aS'DB00508'
p1987
aS'DB00831'
p1988
ag58
ag1546
ag1697
aS'DB00372'
p1989
ag250
ag1151
aS'DB00623'
p1990
aS'DB00422'
p1991
aS'DB00182'
p1992
aS'DB00589'
p1993
ag270
ag1150
ag1970
ag1545
ag1204
ag1074
ag1398
ag475
ag1548
aS'DB00714'
p1994
ag605
aS'DB00245'
p1995
ag474
ag1358
aS'DB01576'
p1996
aS'DB00433'
p1997
atRp1998
sS'prostatic diseases'
p1999
g3
((lp2000
g206
ag213
ag702
aS'DB01216'
p2001
atRp2002
sS'hemangioma, capillary'
p2003
g3
((lp2004
g144
ag382
ag388
ag292
ag90
atRp2005
sS'wilms tumor'
p2006
g3
((lp2007
g299
ag87
ag338
ag95
ag285
ag291
ag397
ag295
atRp2008
sS'arrhythmogenic right ventricular dysplasia'
p2009
g3
((lp2010
g129
ag134
ag44
atRp2011
sS'trophoblastic neoplasms'
p2012
g3
((lp2013
g537
ag302
ag303
ag704
ag95
ag397
ag116
ag399
ag338
ag295
atRp2014
sS'hyperbilirubinemia'
p2015
g3
((lp2016
g374
ag631
ag1463
ag365
ag716
atRp2017
sS'bernard-soulier syndrome'
p2018
g3
((lp2019
g971
atRp2020
sS'heart failure'
p2021
g3
((lp2022
g39
ag40
ag455
ag1612
ag325
ag367
ag49
ag649
ag858
ag136
ag61
ag83
ag653
ag97
ag98
ag757
ag144
ag470
ag104
ag138
ag661
ag1331
ag169
aS'DB00616'
p2023
aS'DB00872'
p2024
ag664
ag665
ag203
ag457
ag129
ag130
aS'DB00214'
p2025
ag71
aS'DB01291'
p2026
ag463
ag45
ag465
ag1447
ag668
ag1502
ag89
ag93
ag454
ag469
ag47
ag299
ag549
ag148
ag80
ag1265
ag60
ag66
ag984
ag1595
ag72
ag502
ag675
ag139
ag85
aS'DB00988'
p2027
ag678
ag189
ag842
aS'DB01324'
p2028
ag96
ag680
ag431
aS'DB01023'
p2029
ag681
ag466
ag988
ag1611
ag682
ag1497
ag683
ag684
ag143
ag685
ag70
ag462
aS'DB00887'
p2030
ag989
ag464
ag75
ag686
ag79
ag137
ag688
ag185
ag37
ag456
ag689
ag1037
atRp2031
sS'protein c deficiency'
p2032
g3
((lp2033
g494
ag644
ag236
ag201
ag215
ag495
ag209
atRp2034
sS'erythroblastosis, fetal'
p2035
g3
((lp2036
g197
ag631
ag1553
ag946
atRp2037
sS'urinary calculi'
p2038
g3
((lp2039
g1000
ag1657
ag1584
ag94
ag1658
ag1463
ag76
ag193
ag97
ag60
ag1455
ag476
ag103
ag18
atRp2040
sS'parasomnias'
p2041
g3
((lp2042
g632
atRp2043
sS'tracheoesophageal fistula'
p2044
g3
((lp2045
g299
atRp2046
sS'bronchial diseases'
p2047
g3
((lp2048
g51
ag171
ag240
ag90
ag229
ag185
ag41
ag78
ag188
ag1332
ag181
ag281
ag73
ag182
ag187
atRp2049
sS'emphysema'
p2050
g3
((lp2051
g182
atRp2052
sS'connective tissue diseases'
p2053
g3
((lp2054
g980
ag53
ag31
ag94
ag90
ag95
ag1037
ag73
atRp2055
sS'nerve compression syndromes'
p2056
g3
((lp2057
g494
ag244
ag44
ag90
ag236
ag231
ag23
ag292
ag964
ag1070
ag388
ag141
atRp2058
sS'bartter syndrome'
p2059
g3
((lp2060
g228
ag403
ag89
ag80
ag162
ag97
ag366
ag66
atRp2061
sS'creutzfeldt-jakob syndrome'
p2062
g3
((lp2063
g1000
ag590
ag1468
ag664
ag1464
ag726
atRp2064
sS'nervous system diseases'
p2065
g3
((lp2066
g244
ag979
ag538
ag1385
ag729
ag476
ag58
ag250
ag364
ag937
ag431
ag295
ag241
atRp2067
sS'leukemia, myelogenous, chronic, bcr-abl positive'
p2068
g3
((lp2069
g300
ag338
ag1183
ag342
ag299
ag309
ag303
ag413
ag1184
ag1731
ag295
ag67
ag340
ag1188
ag1173
ag375
aS'DB08901'
p2070
ag377
ag341
ag895
ag95
aS'DB06616'
p2071
ag822
ag574
ag515
ag711
atRp2072
sS'anemia, macrocytic'
p2073
g3
((lp2074
g1194
ag290
ag320
ag302
ag511
ag698
ag631
ag279
ag1286
ag239
ag238
ag250
ag364
ag30
ag476
ag507
atRp2075
sS'ataxia telangiectasia'
p2076
g3
((lp2077
g338
ag1413
ag110
ag1211
atRp2078
sS'chromosome deletion'
p2079
g3
((lp2080
g1194
aS'DB00131'
p2081
ag340
ag300
ag569
ag294
ag290
atRp2082
sS'pneumothorax'
p2083
g3
((lp2084
g1088
ag590
ag710
ag229
ag271
ag218
atRp2085
sS'dystonia musculorum deformans'
p2086
g3
((lp2087
g1074
ag538
ag1547
ag1151
ag1150
ag1548
atRp2088
sS'parathyroid neoplasms'
p2089
g3
((lp2090
g726
ag11
ag7
ag15
ag12
ag9
ag16
ag17
atRp2091
sS'neoplastic syndromes, hereditary'
p2092
g3
((lp2093
g144
ag200
atRp2094
sS'spinal muscular atrophies of childhood'
p2095
g3
((lp2096
g23
ag633
atRp2097
sS'leukemia'
p2098
g3
((lp2099
g197
ag364
ag338
ag963
ag1183
ag339
ag291
ag239
ag342
ag343
ag299
ag372
ag51
ag303
ag822
ag300
ag413
ag103
ag279
ag1184
ag709
ag1186
ag1006
ag295
ag1187
ag274
ag1293
ag67
ag340
ag114
ag703
ag704
ag1188
ag620
ag73
ag320
ag375
ag116
ag399
ag377
ag575
ag341
ag895
ag90
ag101
ag95
ag622
ag1189
ag574
ag1190
ag515
ag131
ag118
ag312
atRp2100
sS'neoplasms, squamous cell'
p2101
g3
((lp2102
g285
ag280
atRp2103
sS'glycogen storage disease type ii'
p2104
g3
((lp2105
S'DB00284'
p2106
atRp2107
sS'nystagmus, pathologic'
p2108
g3
((lp2109
g23
ag244
ag262
ag141
aS'DB00985'
p2110
ag278
ag431
ag631
ag1130
ag58
ag546
ag1150
ag250
ag1779
aS'DB06698'
p2111
ag698
ag520
ag1074
ag105
atRp2112
sS'parkinsonian disorders'
p2113
g3
((lp2114
g1545
aS'DB01367'
p2115
aS'DB00413'
p2116
ag538
ag1330
ag1369
ag1970
aS'DB01173'
p2117
aS'DB01224'
p2118
aS'DB00268'
p2119
ag1994
ag665
ag1151
ag1464
ag1468
ag1996
ag729
ag1992
ag1548
atRp2120
sS'leukemia, lymphoid'
p2121
g3
((lp2122
g302
ag339
ag291
ag397
ag299
ag51
ag303
ag343
ag279
ag292
ag239
ag1006
ag295
ag1187
ag293
ag114
ag703
ag704
ag65
ag73
ag320
ag116
ag342
ag575
ag341
ag895
ag90
ag316
ag95
aS'DB00174'
p2123
ag574
ag399
ag515
ag103
ag118
ag312
atRp2124
sS'metal metabolism, inborn errors'
p2125
g3
((lp2126
g30
ag389
atRp2127
sS'hypothalamic neoplasms'
p2128
g3
((lp2129
g537
ag152
atRp2130
sS'hemolytic-uremic syndrome'
p2131
g3
((lp2132
g88
ag658
ag474
ag301
ag136
ag38
ag308
ag225
ag139
ag236
ag657
ag67
atRp2133
sS'hyperoxaluria'
p2134
g3
((lp2135
g384
ag476
atRp2136
sS'hypotrichosis'
p2137
g3
((lp2138
g1302
atRp2139
sS'central nervous system neoplasms'
p2140
g3
((lp2141
g300
ag302
ag963
ag339
ag285
ag338
ag299
ag303
ag293
ag569
ag292
ag398
ag1731
ag295
ag704
ag1188
ag372
ag731
ag87
ag341
ag305
ag90
ag95
ag732
ag73
ag312
atRp2142
sS'hyperaldosteronism'
p2143
g3
((lp2144
g161
ag89
ag80
ag40
ag293
ag533
ag154
ag60
ag156
ag97
ag61
ag530
ag292
aS'DB01233'
p2145
ag403
ag75
ag162
ag1612
ag66
atRp2146
sS'paraganglioma'
p2147
g3
((lp2148
g469
ag462
ag665
ag307
atRp2149
sS'acth-secreting pituitary adenoma'
p2150
g3
((lp2151
g1357
ag154
ag156
atRp2152
sS'thyroid hormone resistance syndrome'
p2153
g3
((lp2154
g123
atRp2155
sS'polyradiculoneuropathy'
p2156
g3
((lp2157
g231
ag979
ag53
ag73
ag90
atRp2158
sS'pelizaeus-merzbacher disease'
p2159
g3
((lp2160
g728
atRp2161
sS'neoplasms, gonadal tissue'
p2162
g3
((lp2163
g206
ag213
atRp2164
sS'factor x deficiency'
p2165
g3
((lp2166
g201
ag215
ag291
ag209
ag73
atRp2167
sS'disorders of sex development'
p2168
g3
((lp2169
g811
ag537
ag205
ag152
ag197
ag1522
ag293
ag199
ag213
ag154
ag292
ag156
ag812
ag901
ag702
ag562
ag206
atRp2170
sS'uterine neoplasms'
p2171
g3
((lp2172
g811
ag302
ag946
ag199
ag200
ag397
ag812
ag338
ag299
ag44
ag303
ag205
ag814
ag558
ag398
ag710
ag206
ag702
ag815
ag295
ag208
ag198
ag537
ag152
ag1567
ag214
ag213
ag1310
ag110
ag116
ag562
ag218
ag87
ag241
ag95
ag560
ag557
ag399
ag1569
ag285
atRp2173
sS'cataplexy'
p2174
g3
((lp2175
g1501
ag1044
ag454
ag1986
ag1992
ag1775
ag1996
ag1991
aS'DB01242'
p2176
atRp2177
sS'panuveitis'
p2178
g3
((lp2179
g73
ag90
atRp2180
sS'avitaminosis'
p2181
g3
((lp2182
g364
ag797
ag326
ag384
ag431
ag201
ag476
ag870
ag386
ag7
ag859
ag209
ag30
ag389
ag16
ag215
atRp2183
sS'brain damage, chronic'
p2184
g3
((lp2185
g729
ag546
ag548
ag474
ag631
ag1695
ag250
ag1986
ag778
ag269
ag475
ag1996
ag1991
ag1992
atRp2186
sS'iron metabolism disorders'
p2187
g3
((lp2188
g30
atRp2189
sS'common variable immunodeficiency'
p2190
g3
((lp2191
g90
atRp2192
sS'cadasil'
p2193
g3
((lp2194
g41
atRp2195
sS'exfoliation syndrome'
p2196
g3
((lp2197
g519
ag1386
ag1301
ag1400
ag621
ag521
ag308
ag1302
ag1957
atRp2198
sS'gout'
p2199
g3
((lp2200
S'DB00049'
p2201
ag403
ag263
ag84
ag65
ag75
ag60
ag193
ag235
ag550
ag103
atRp2202
sS'fetal diseases'
p2203
g3
((lp2204
g129
ag1308
ag148
ag946
ag134
ag293
ag633
ag275
ag292
ag79
ag125
atRp2205
sS'pyruvate carboxylase deficiency disease'
p2206
g3
((lp2207
g849
ag870
atRp2208
sS'ectopia lentis'
p2209
g3
((lp2210
g476
atRp2211
sS'urination disorders'
p2212
g3
((lp2213
g1501
aS'DB00925'
p2214
ag2001
ag1817
ag1090
ag91
aS'DB01019'
p2215
aS'DB06207'
p2216
ag984
ag454
aS'DB01036'
p2217
aS'DB01162'
p2218
ag40
aS'DB01126'
p2219
ag715
aS'DB01591'
p2220
aS'DB01148'
p2221
aS'DB00346'
p2222
ag921
ag971
atRp2223
sS'cholesterol ester storage disease'
p2224
g3
((lp2225
g986
atRp2226
sS'carcinoma, non-small-cell lung'
p2227
g3
((lp2228
g68
ag301
ag285
ag338
ag299
ag115
ag369
ag343
ag247
ag294
ag237
ag1004
ag304
ag372
ag731
ag241
ag375
ag14
ag572
ag87
ag1008
ag377
ag305
ag95
ag732
ag155
ag514
ag308
ag280
ag399
ag575
atRp2229
sS'sebaceous gland diseases'
p2230
g3
((lp2231
g25
atRp2232
sS'renal insufficiency, chronic'
p2233
g3
((lp2234
g86
ag11
ag7
ag42
ag30
ag9
ag62
ag16
ag19
atRp2235
sS'pulmonary valve stenosis'
p2236
g3
((lp2237
g138
ag130
ag461
atRp2238
sS'uterine cervical neoplasms'
p2239
g3
((lp2240
g546
ag68
ag963
ag285
ag338
ag299
ag44
ag303
ag369
ag413
ag25
ag301
ag558
ag702
ag295
ag304
ag214
ag372
ag110
aS'DB03166'
p2241
ag87
ag241
ag412
ag95
ag514
ag308
ag574
ag399
atRp2242
sS'warts'
p2243
g3
((lp2244
g1089
ag409
ag703
ag316
ag25
ag414
ag386
ag110
ag102
ag879
ag1228
atRp2245
sS'spondylitis'
p2246
g3
((lp2247
g257
ag51
ag44
ag368
ag278
ag358
ag232
ag235
ag238
ag352
atRp2248
sS'heart septal defects'
p2249
g3
((lp2250
g384
ag461
atRp2251
sS'seizures'
p2252
g3
((lp2253
g628
ag224
ag333
ag546
ag1985
ag782
ag325
ag1694
ag250
ag1784
aS'DB01544'
p2254
aS'DB00543'
p2255
ag1699
ag631
ag629
ag1705
ag1703
ag1707
ag475
ag637
ag773
ag621
ag146
ag269
ag630
ag1330
ag1130
ag632
ag233
ag1211
ag633
ag1547
ag838
ag141
ag1061
ag244
ag1696
ag476
ag636
ag187
ag227
ag275
ag1069
ag1675
ag1070
ag532
ag1073
ag1501
aS'DB00842'
p2256
aS'DB00514'
p2257
ag1708
ag604
ag1075
ag942
ag964
ag605
ag469
ag131
ag1996
ag1209
aS'DB00733'
p2258
ag1692
ag1693
ag1918
ag617
ag23
ag1545
aS'DB00854'
p2259
ag1695
ag58
aS'DB01355'
p2260
ag474
ag1005
ag1700
ag140
ag1150
ag1992
aS'DB00647'
p2261
aS'DB00690'
p2262
ag1702
ag728
ag635
ag1704
ag182
ag1043
ag1074
ag1398
ag1701
ag634
ag185
ag1169
ag1710
ag6
ag1499
aS'DB00934'
p2263
ag1697
ag1698
ag1775
ag177
ag729
ag1333
ag193
ag778
ag1149
ag698
ag215
ag1994
ag284
atRp2264
sS'ornithine carbamoyltransferase deficiency disease'
p2265
g3
((lp2266
g324
ag24
ag103
ag1195
ag490
atRp2267
sS'water-electrolyte imbalance'
p2268
g3
((lp2269
g1515
ag89
ag40
ag38
ag97
ag971
ag66
atRp2270
sS'alzheimer disease'
p2271
g3
((lp2272
g1041
ag1413
ag364
ag835
aS'DB00156'
p2273
aS'DB00670'
p2274
ag1983
ag389
aS'DB00382'
p2275
ag326
ag694
ag1005
ag2215
ag36
ag29
ag728
ag1970
ag729
ag861
ag730
ag520
ag1957
ag1448
ag2115
ag1398
aS'DB00989'
p2276
ag2118
ag758
atRp2277
sS'cerebellar diseases'
p2278
g3
((lp2279
g538
ag250
ag341
ag58
atRp2280
sS'meningioma'
p2281
g3
((lp2282
g307
ag36
ag44
ag92
ag730
ag292
ag964
ag293
ag574
ag814
atRp2283
sS'hemorrhagic fevers, viral'
p2284
g3
((lp2285
g510
atRp2286
sS'carcinoma, hepatocellular'
p2287
g3
((lp2288
g546
ag1183
ag201
ag200
ag397
ag310
aS'DB08884'
p2289
ag510
ag30
ag342
ag299
ag52
ag369
ag413
ag247
ag558
ag292
ag1454
ag1136
ag307
ag48
ag1116
aS'DB00147'
p2290
ag44
ag572
ag86
ag320
ag377
ag155
ag308
ag209
ag733
ag293
ag1457
atRp2291
sS'immune system diseases'
p2292
g3
((lp2293
g73
ag53
ag90
atRp2294
sS'actinomycetales infections'
p2295
g3
((lp2296
g69
ag350
ag105
ag257
ag168
ag101
ag232
ag876
ag281
ag617
atRp2297
sS'protozoan infections'
p2298
g3
((lp2299
g1088
aS'DB00507'
p2300
ag1282
aS'DB00614'
p2301
ag420
ag1919
atRp2302
sS'myopathy, central core'
p2303
g3
((lp2304
g1211
atRp2305
sS'esophageal atresia'
p2306
g3
((lp2307
g299
ag122
atRp2308
sS'fatty liver'
p2309
g3
((lp2310
g546
ag726
ag229
ag365
ag1368
ag2289
ag510
ag30
ag682
ag326
ag653
ag580
ag48
ag463
ag730
ag583
ag502
ag870
ag374
ag741
ag857
ag688
ag862
ag1093
atRp2311
sS'progeria'
p2312
g3
((lp2313
g959
ag15
atRp2314
sS'pharyngeal diseases'
p2315
g3
((lp2316
g1293
ag51
ag273
ag614
ag1823
ag229
ag253
ag227
ag531
ag1822
ag909
aS'DB00919'
p2317
ag84
ag1190
atRp2318
sS'polycystic ovary syndrome'
p2319
g3
((lp2320
g811
aS'DB00499'
p2321
ag199
ag154
ag812
ag268
ag2001
ag293
ag558
ag292
ag682
ag206
ag1568
ag66
ag537
ag152
ag1567
ag214
ag633
aS'DB01395'
p2322
ag213
ag502
ag156
ag562
ag1310
ag1569
ag1204
ag688
ag1522
ag561
ag818
ag205
ag218
atRp2323
sS'hydatidiform mole'
p2324
g3
((lp2325
g811
ag537
ag302
ag303
ag946
ag704
ag205
ag95
ag397
ag1310
ag812
ag1308
ag116
ag562
ag338
ag295
atRp2326
sS'alopecia'
p2327
g3
((lp2328
g338
ag11
ag199
ag285
ag389
ag299
ag303
ag369
ag206
ag1266
ag295
ag66
ag31
ag703
ag213
ag241
ag110
ag2001
ag87
ag409
ag342
ag90
ag95
ag1522
ag467
ag2219
ag280
ag73
ag399
ag575
atRp2329
sS'pseudohypoparathyroidism'
p2330
g3
((lp2331
g11
ag7
ag13
ag15
ag202
ag16
ag17
atRp2332
sS'jaw abnormalities'
p2333
g3
((lp2334
g386
atRp2335
sS'hair diseases'
p2336
g3
((lp2337
g168
ag519
ag467
ag1584
atRp2338
sS'dystonic disorders'
p2339
g3
((lp2340
g952
ag538
ag1150
atRp2341
sS'otorhinolaryngologic neoplasms'
p2342
g3
((lp2343
g285
atRp2344
sS'pituitary neoplasms'
p2345
g3
((lp2346
g40
ag154
ag2145
ag44
ag538
ag293
ag569
ag292
ag398
ag1357
ag206
ag123
ag530
ag702
ag971
ag307
ag1993
ag537
ag152
ag213
ag529
aS'DB00391'
p2347
ag1310
ag156
ag1204
aS'DB01184'
p2348
ag964
ag205
ag1205
ag1358
atRp2349
sS'refractive errors'
p2350
g3
((lp2351
g1957
ag146
ag1383
ag455
ag140
atRp2352
sS'lymphatic diseases'
p2353
g3
((lp2354
g197
ag244
ag303
ag90
ag339
ag507
ag95
ag606
ag399
ag250
ag352
ag116
ag73
ag110
ag295
atRp2355
sS'gastroenteritis'
p2356
g3
((lp2357
g245
ag105
ag90
ag229
ag63
ag358
ag246
ag2301
ag279
aS'DB00836'
p2358
ag239
ag278
ag273
ag97
ag1532
ag82
ag602
ag1653
ag73
ag2145
atRp2359
sS'cutis laxa'
p2360
g3
((lp2361
g94
atRp2362
sS'chilblains'
p2363
g3
((lp2364
g31
atRp2365
sS'autonomic nervous system diseases'
p2366
g3
((lp2367
g140
ag161
ag1065
aS'DB01364'
p2368
ag538
ag462
ag837
aS'DB00211'
p2369
ag621
aS'DB01392'
p2370
ag144
ag1696
ag1149
ag455
aS'DB00852'
p2371
ag469
ag665
ag146
ag539
ag737
atRp2372
sS'tobacco use disorder'
p2373
g3
((lp2374
g177
aS'DB00657'
p2375
ag860
ag1309
aS'DB00825'
p2376
ag1784
ag1005
ag173
aS'DB00540'
p2377
atRp2378
sS'stomach diseases'
p2379
g3
((lp2380
g1307
ag1089
ag546
aS'DB00863'
p2381
aS'DB00448'
p2382
ag240
ag2348
ag403
ag1823
ag350
ag2145
aS'DB01294'
p2383
ag235
aS'DB00364'
p2384
ag1822
ag281
ag420
ag366
ag226
aS'DB00213'
p2385
aS'DB00183'
p2386
atRp2387
sS'mental retardation, x-linked'
p2388
g3
((lp2389
g36
atRp2390
sS'hematologic diseases'
p2391
g3
((lp2392
g197
ag364
ag302
ag963
ag306
ag508
ag291
ag1918
ag30
ag338
ag617
ag299
ag51
ag303
ag822
ag369
ag246
ag301
ag398
ag239
ag294
ag1186
ag295
ag290
ag285
ag340
ag304
ag372
ag241
ag110
ag116
ag342
ag87
ag341
ag895
ag305
ag90
ag101
ag95
ag514
ag280
ag1922
ag73
ag399
ag515
ag575
ag312
atRp2393
sS'hemiplegia'
p2394
g3
((lp2395
g90
ag236
ag1147
ag1695
ag424
ag1148
ag838
ag1150
atRp2396
sS'ophthalmoplegia'
p2397
g3
((lp2398
g293
ag90
ag538
ag431
ag231
ag292
ag1779
ag1064
ag73
ag1065
atRp2399
sS'vascular malformations'
p2400
g3
((lp2401
S'DB06689'
p2402
ag546
ag110
ag1055
ag1054
atRp2403
sS'purpura'
p2404
g3
((lp2405
g773
ag494
ag53
ag197
ag384
ag316
ag201
ag90
ag209
ag73
ag236
atRp2406
sS'neuroectodermal tumors, primitive'
p2407
g3
((lp2408
g299
ag87
ag285
ag338
ag305
ag963
ag372
ag95
ag569
ag398
ag295
atRp2409
sS'hyperglycinemia, nonketotic'
p2410
g3
((lp2411
g193
ag2257
atRp2412
sS'glycogen storage disease'
p2413
g3
((lp2414
g463
atRp2415
sS'venous insufficiency'
p2416
g3
((lp2417
g494
ag1054
ag236
ag775
ag837
ag741
ag1055
atRp2418
sS'colonic diseases'
p2419
g3
((lp2420
g286
ag245
ag238
ag81
ag282
ag420
ag823
ag1928
ag1919
atRp2421
sS'muscular disorders, atrophic'
p2422
g3
((lp2423
g324
ag218
atRp2424
sS'angioedema'
p2425
g3
((lp2426
g773
ag262
ag219
ag240
ag39
ag90
ag71
ag72
ag676
ag464
ag104
ag710
ag80
ag901
ag45
ag433
ag73
ag1560
ag779
ag607
ag231
atRp2427
sS'lipid metabolism disorders'
p2428
g3
((lp2429
g463
atRp2430
sS'lung diseases, obstructive'
p2431
g3
((lp2432
g166
ag138
ag1060
ag170
ag1332
ag187
ag171
ag1062
ag804
ag188
ag174
ag175
ag176
ag130
ag240
ag2026
ag78
ag465
ag179
ag181
ag182
ag183
ag184
ag185
ag90
aS'DB00824'
p2433
aS'DB00716'
p2434
ag73
atRp2435
sS'lens subluxation'
p2436
g3
((lp2437
g476
atRp2438
sS'bronchial neoplasms'
p2439
g3
((lp2440
g299
ag307
ag303
ag305
ag963
ag40
ag339
ag95
ag154
ag17
ag110
ag370
ag399
ag575
ag295
ag114
atRp2441
sS'central nervous system vascular malformations'
p2442
g3
((lp2443
g780
atRp2444
sS'diabetes mellitus'
p2445
g3
((lp2446
g197
aS'DB01067'
p2447
aS'DB00731'
p2448
aS'DB00672'
p2449
aS'DB00491'
p2450
ag2106
aS'DB00839'
p2451
ag60
ag682
ag651
ag311
aS'DB00259'
p2452
ag24
ag38
ag75
ag502
aS'DB00046'
p2453
aS'DB04878'
p2454
aS'DB00414'
p2455
ag88
ag688
ag862
ag1093
ag581
aS'DB01120'
p2456
ag2028
ag104
aS'DB01306'
p2457
atRp2458
sS'rectal diseases'
p2459
g3
((lp2460
g227
ag1632
ag238
ag253
ag77
ag352
ag84
ag420
ag2384
ag1928
ag1919
atRp2461
sS'postoperative complications'
p2462
g3
((lp2463
g644
ag1059
ag404
ag231
ag777
ag782
ag325
aS'DB00465'
p2464
ag424
ag1066
ag1136
ag654
ag1903
ag74
ag88
ag90
ag308
ag1449
ag733
ag656
ag1489
ag129
ag774
aS'DB00757'
p2465
ag658
ag474
ag660
ag1260
ag233
ag141
ag1061
ag494
ag51
ag52
ag55
ag57
ag292
ag663
ag1989
ag1064
ag236
ag779
ag64
ag620
ag307
ag242
ag959
ag1315
ag63
ag1913
ag275
ag38
ag1396
ag1069
ag1675
ag1070
ag81
ag668
ag69
ag35
ag89
ag1210
ag56
ag1075
aS'DB06800'
p2466
ag1190
ag1893
ag1209
ag230
ag269
ag1918
ag420
ag1442
ag286
ag1089
ag245
ag53
ag252
ag1695
ag388
ag1456
ag672
ag258
ag773
ag59
ag675
ag1653
aS'DB00633'
p2467
ag623
ag1922
ag73
ag283
ag1924
ag1503
ag611
ag225
ag679
ag877
ag837
ag43
ag215
ag988
ag293
ag1185
ag1168
ag909
ag2145
ag971
ag1067
ag823
ag1928
ag274
ag67
ag1652
ag266
ag778
ag47
ag82
ag1071
aS'DB06274'
p2468
ag273
ag105
ag1062
ag495
ag390
ag690
aS'DB00001'
p2469
atRp2470
sS'parasitic diseases'
p2471
g3
((lp2472
g600
ag601
ag316
ag1543
ag606
aS'DB06803'
p2473
ag30
ag602
ag420
ag599
atRp2474
sS'myositis'
p2475
g3
((lp2476
g286
ag611
ag53
ag303
ag94
ag231
ag90
ag95
ag36
ag73
ag579
atRp2477
sS'hyperostosis, cortical, congenital'
p2478
g3
((lp2479
g404
ag90
atRp2480
sS'glioblastoma'
p2481
g3
((lp2482
g300
ag338
ag339
ag285
ag299
ag52
ag343
ag25
ag569
ag398
ag295
ag36
ag293
ag304
ag372
ag730
ag731
ag44
ag241
ag305
ag92
ag732
ag733
ag574
ag879
ag312
atRp2483
sS'anti-glomerular basement membrane disease'
p2484
g3
((lp2485
g53
ag94
ag231
ag90
ag95
ag73
atRp2486
sS'mucolipidoses'
p2487
g3
((lp2488
g444
atRp2489
sS'signs and symptoms'
p2490
g3
((lp2491
g214
ag560
ag199
ag558
ag557
atRp2492
sS'hemangioma'
p2493
g3
((lp2494
g382
ag90
ag231
ag1054
ag414
ag292
ag521
ag2289
ag44
ag110
ag388
ag73
ag144
ag2402
ag295
atRp2495
sS'pantothenate kinase-associated neurodegeneration'
p2496
g3
((lp2497
g30
atRp2498
sS'gilbert disease'
p2499
g3
((lp2500
g257
ag631
ag232
ag859
atRp2501
sS'hepatitis c, chronic'
p2502
g3
((lp2503
g959
ag2300
ag1465
ag1462
ag1309
ag365
ag1468
ag374
ag510
ag30
ag757
ag1464
ag1136
ag1457
atRp2504
sS'dementia'
p2505
g3
((lp2506
S'DB00656'
p2507
ag364
ag548
ag835
ag837
ag520
ag2274
aS'DB01104'
p2508
ag2275
ag244
ag538
ag1501
ag58
ag1970
aS'DB00420'
p2509
ag861
ag1444
ag633
ag1445
ag730
ag1545
ag156
ag1983
ag1448
ag1398
ag840
ag841
ag2276
ag2118
ag605
atRp2510
sS'lymphedema'
p2511
g3
((lp2512
g494
ag606
atRp2513
sS'bile duct diseases'
p2514
g3
((lp2515
g374
ag365
atRp2516
sS'sertoli-leydig cell tumor'
p2517
g3
((lp2518
g206
ag213
ag293
ag292
ag562
atRp2519
sS'nevus, sebaceous of jadassohn'
p2520
g3
((lp2521
g411
atRp2522
sS'hypokalemic periodic paralysis'
p2523
g3
((lp2524
g144
ag122
ag325
ag24
ag157
atRp2525
sS'fibroma'
p2526
g3
((lp2527
g44
ag200
ag73
ag90
atRp2528
sS'goiter'
p2529
g3
((lp2530
g129
ag648
ag122
ag58
ag123
ag124
ag157
ag17
ag125
atRp2531
sS'leukemia, neutrophilic, chronic'
p2532
g3
((lp2533
g574
atRp2534
sS'heart neoplasms'
p2535
g3
((lp2536
g299
ag87
ag44
ag90
ag95
ag398
ag665
ag73
ag295
atRp2537
sS'hypothalamic diseases'
p2538
g3
((lp2539
g1204
ag537
ag152
ag40
ag213
ag528
ag154
ag1310
ag206
ag205
ag156
atRp2540
sS'vitamin e deficiency'
p2541
g3
((lp2542
g36
ag726
ag384
ag201
ag48
ag386
ag326
ag209
ag30
atRp2543
sS'ossification, heterotopic'
p2544
g3
((lp2545
g210
ag403
ag81
atRp2546
sS'sexual dysfunction, physiological'
p2547
g3
((lp2548
g223
aS'DB06148'
p2549
ag548
ag861
ag169
ag2508
ag2001
ag205
ag206
aS'DB00370'
p2550
ag177
ag537
ag152
ag1444
ag775
ag213
ag1445
ag1983
ag1204
aS'DB00472'
p2551
aS'DB00862'
p2552
ag1539
ag1522
ag2118
aS'DB00715'
p2553
ag2222
ag2176
atRp2554
sS'hyperoxaluria, primary'
p2555
g3
((lp2556
g476
atRp2557
sS'isaacs syndrome'
p2558
g3
((lp2559
g244
atRp2560
sS'anemia, aplastic'
p2561
g3
((lp2562
g364
ag339
ag658
ag207
ag231
ag235
ag30
ag51
ag303
ag246
ag710
ag206
ag308
ag1186
ag704
ag67
ag340
ag122
ag511
ag1699
ag213
ag341
ag513
ag90
ag95
ag901
ag73
ag515
ag219
atRp2563
sS'neutropenia'
p2564
g3
((lp2565
g167
ag506
ag614
ag615
ag285
ag510
ag338
ag368
ag54
aS'DB05109'
p2566
ag239
ag295
ag1902
ag619
ag304
ag1903
ag1188
ag90
ag101
ag622
ag280
ag733
ag399
ag312
ag347
ag613
ag658
ag306
ag51
ag303
ag55
ag369
ag301
ag279
ag1912
ag63
ag620
ag110
ag376
ag69
ag87
ag895
ag905
ag316
ag56
ag514
ag1297
ag605
ag1190
ag575
ag1916
ag612
ag291
ag1918
ag68
ag617
ag299
ag909
ag58
ag569
ag398
ag254
ag1293
ag1004
ag1613
ag704
ag372
ag341
ag342
ag305
ag358
ag95
ag623
ag1922
ag73
ag302
ag1290
ag290
ag508
ag43
ag531
ag340
ag1185
ag247
ag172
ag274
ag82
ag241
ag105
ag822
atRp2567
sS'retinoblastoma'
p2568
g3
((lp2569
g299
ag285
ag338
ag291
ag413
ag372
ag95
ag295
atRp2570
sS'death, sudden, cardiac'
p2571
g3
((lp2572
g138
ag143
ag856
ag658
ag660
ag661
ag1331
ag52
ag148
ag136
ag61
ag665
ag683
ag135
ag66
ag129
ag134
ag458
ag45
ag139
ag668
ag147
ag470
atRp2573
sS'tooth diseases'
p2574
g3
((lp2575
g286
ag261
ag226
ag229
ag419
ag281
ag1490
atRp2576
sS'thromboembolism'
p2577
g3
((lp2578
g644
ag225
aS'DB00957'
p2579
ag252
ag658
ag474
ag660
ag199
ag200
ag837
ag235
ag1442
ag494
ag654
ag558
ag663
ag1261
ag779
ag550
ag201
ag198
ag1260
ag31
ag236
ag1449
ag561
ag773
ag2469
ag215
ag495
ag560
ag581
ag209
ag557
ag656
ag657
aS'DB06730'
p2580
atRp2581
sS'crohn disease'
p2582
g3
((lp2583
g364
ag7
ag231
aS'DB00891'
p2584
ag59
ag1477
ag389
ag420
ag44
ag53
ag303
ag57
ag2358
ag16
aS'DB01250'
p2585
ag67
ag704
ag762
ag73
ag914
ag90
ag238
ag358
ag184
ag282
ag1187
ag1935
atRp2586
sS'cystinuria'
p2587
g3
((lp2588
g1194
ag24
ag726
ag94
ag1584
ag41
ag490
ag78
ag866
ag76
ag193
ag80
atRp2589
sS'hamartoma'
p2590
g3
((lp2591
g415
ag537
ag152
atRp2592
sS'neuroendocrine tumors'
p2593
g3
((lp2594
g307
ag52
ag538
ag306
ag569
ag155
ag398
ag1357
ag671
ag311
ag665
ag17
atRp2595
sS'pain'
p2596
g3
((lp2597
g546
ag1059
aS'DB00956'
p2598
ag1537
ag1420
ag231
ag235
ag777
ag433
ag782
ag437
ag2464
ag440
ag436
ag1784
ag1066
ag17
ag210
ag860
ag1397
ag1703
aS'DB00476'
p2599
ag1864
ag438
ag439
ag539
ag223
ag269
aS'DB00611'
p2600
ag1282
ag233
aS'DB00285'
p2601
ag12
ag141
ag1061
ag244
aS'DB00870'
p2602
ag710
aS'DB01403'
p2603
ag145
ag228
ag959
ag1606
ag275
ag81
ag1069
ag1675
ag1070
ag532
ag77
ag1073
ag1502
ag1072
ag1148
ag1075
ag1539
aS'DB06204'
p2604
ag1538
ag366
ag242
ag23
aS'DB01192'
p2605
ag411
ag2259
ag388
ag1150
aS'DB06725'
p2606
ag2261
ag237
aS'DB00486'
p2607
ag211
ag253
ag1309
ag1501
ag675
ag1653
ag1074
aS'DB00821'
p2608
ag2257
ag2467
ag1076
ag258
ag2375
ag403
ag1496
ag679
aS'DB00497'
p2609
aS'DB00327'
p2610
ag1499
ag1698
aS'DB04896'
p2611
ag259
ag1068
aS'DB00669'
p2612
ag203
ag729
ag2370
ag76
ag1307
ag1422
ag1071
ag14
ag2241
ag215
aS'DB00247'
p2613
ag217
ag758
ag378
atRp2614
sS'hyperphosphatemia'
p2615
g3
((lp2616
g11
ag7
ag42
ag859
ag9
ag62
ag16
ag18
ag19
atRp2617
sS'retinal degeneration'
p2618
g3
((lp2619
g386
ag729
ag29
ag476
ag490
atRp2620
sS'acidosis, lactic'
p2621
g3
((lp2622
g508
ag502
ag431
ag354
ag463
ag76
ag849
ag188
ag1467
ag782
ag1136
ag1092
ag848
atRp2623
sS'hypophosphatemia, familial'
p2624
g3
((lp2625
g11
ag7
ag13
ag15
ag10
ag16
ag17
atRp2626
sS'femur head necrosis'
p2627
g3
((lp2628
g197
ag44
ag90
ag293
ag231
ag292
ag216
ag73
atRp2629
sS'seizures, febrile'
p2630
g3
((lp2631
g1061
ag244
ag698
ag631
ag632
ag1074
ag77
ag250
ag633
atRp2632
sS'amyloid neuropathies'
p2633
g3
((lp2634
g664
ag726
atRp2635
sS'pharyngeal neoplasms'
p2636
g3
((lp2637
g110
ag399
ag95
ag295
ag303
atRp2638
sS'rhabdomyosarcoma, embryonal'
p2639
g3
((lp2640
g338
ag87
ag95
ag397
ag295
atRp2641
sS'carcinoma'
p2642
g3
((lp2643
g302
ag963
ag301
ag306
ag200
ag291
ag397
ag310
ag338
ag299
ag44
ag303
ag727
ag369
ag205
ag2321
ag247
ag665
ag702
ag295
ag208
ag2386
ag307
ag50
ag285
ag114
ag304
ag214
ag1007
ag372
ag529
ag241
ag154
ag399
ag342
ag87
ag320
ag377
ag305
ag95
ag17
ag514
ag308
ag280
ag110
ag1569
ag575
atRp2644
sS'hypertriglyceridemia'
p2645
g3
((lp2646
g653
ag856
ag1203
ag412
ag673
ag236
ag861
ag580
ag583
ag986
ag115
ag859
ag581
ag579
atRp2647
sS'urologic diseases'
p2648
g3
((lp2649
g86
ag87
ag273
ag89
ag91
ag215
ag876
ag777
ag44
ag715
ag64
ag2222
atRp2650
sS'genital neoplasms, male'
p2651
g3
((lp2652
g87
ag95
ag397
ag206
ag702
ag295
atRp2653
sS'hypertension'
p2654
g3
((lp2655
S'DB08822'
p2656
aS'DB00774'
p2657
ag71
ag39
ag40
ag2218
ag455
ag1612
ag49
ag858
aS'DB01090'
p2658
ag1334
ag61
ag1186
ag683
aS'DB01018'
p2659
ag83
ag653
ag1395
ag467
ag24
ag2370
ag547
ag655
ag1576
ag203
ag757
ag144
ag470
ag657
ag104
ag138
aS'DB00752'
p2660
ag1384
ag659
ag1330
ag661
ag984
ag2023
ag162
ag2214
aS'DB04840'
p2661
ag1443
ag161
ag97
ag98
ag521
ag664
ag665
aS'DB06707'
p2662
ag1721
ag457
ag459
ag130
ag270
ag460
ag2025
ag549
ag921
ag1335
ag45
ag465
aS'DB00212'
p2663
ag156
ag987
ag776
ag667
aS'DB01325'
p2664
aS'DB00691'
p2665
ag1502
aS'DB01348'
p2666
ag539
ag93
ag1389
ag454
ag89
ag469
ag1402
aS'DB00780'
p2667
ag982
aS'DB01359'
p2668
ag80
ag1265
ag60
ag781
ag672
aS'DB00629'
p2669
aS'DB08807'
p2670
ag66
ag134
ag681
ag72
ag674
ag675
ag85
aS'DB01295'
p2671
ag1498
ag676
ag678
ag189
ag842
ag2028
ag96
ag6
aS'DB01626'
p2672
ag1659
ag2029
ag837
ag466
aS'DB04920'
p2673
aS'DB00528'
p2674
ag1390
ag1611
aS'DB00232'
p2675
ag684
ag458
ag143
ag67
ag462
ag464
ag75
ag686
ag79
ag47
ag742
ag37
ag456
ag1037
atRp2676
sS'spasms, infantile'
p2677
g3
((lp2678
g244
ag1074
ag90
ag528
ag631
ag73
ag1692
ag154
ag156
ag633
ag1693
ag250
ag634
ag635
ag632
ag636
ag284
ag637
ag476
atRp2679
sS'colitis, ulcerative'
p2680
g3
((lp2681
g197
ag364
ag231
ag2584
ag154
ag365
aS'DB05265'
p2682
ag366
ag420
ag53
ag303
aS'DB01014'
p2683
ag1557
ag1005
ag2585
ag67
ag704
ag762
ag73
ag156
ag374
ag181
ag2241
ag88
ag90
ag238
ag1935
aS'DB01081'
p2684
ag184
ag2384
ag733
ag282
atRp2685
sS'calcium metabolism disorders'
p2686
g3
((lp2687
g11
ag7
ag15
ag60
ag842
ag16
ag17
atRp2688
sS'psychomotor disorders'
p2689
g3
((lp2690
g538
ag431
ag1074
atRp2691
sS'adrenal gland diseases'
p2692
g3
((lp2693
g197
ag161
ag90
ag213
ag528
ag154
ag292
ag156
ag206
ag665
ag293
ag236
ag530
ag66
atRp2694
sS'werner syndrome'
p2695
g3
((lp2696
g682
ag959
atRp2697
sS'coronary artery disease'
p2698
g3
((lp2699
g856
ag364
ag670
ag658
ag474
ag660
ag42
ag645
ag857
ag671
ag241
ag582
ag49
ag655
ag52
ag649
ag650
ag646
ag682
ag326
ag859
ag985
ag236
ag62
ag1720
ag652
ag653
ag580
ag673
ag133
aS'DB06213'
p2700
ag24
ag464
ag583
ag686
ag675
ag44
ag687
ag986
ag470
ag647
ag668
ag86
ag131
ag93
ag456
ag495
ag689
ag99
ag189
ag690
ag579
atRp2701
sS'leukemia, promyelocytic, acute'
p2702
g3
((lp2703
g299
ag341
ag895
ag303
aS'DB04942'
p2704
ag11
ag704
ag1188
ag780
ag1183
ag1184
ag413
ag342
ag16
ag1006
ag338
ag1187
atRp2705
sS'hyperthyroidism'
p2706
g3
((lp2707
g129
ag36
ag122
ag1330
ag58
ag154
ag1395
ag123
ag124
ag157
ag144
ag17
ag125
atRp2708
sS'gangliosidoses, gm2'
p2709
g3
((lp2710
S'DB00419'
p2711
atRp2712
sS'syndactyly'
p2713
g3
((lp2714
g849
atRp2715
sS'lipidoses'
p2716
g3
((lp2717
g129
ag979
ag463
ag29
ag1633
ag106
atRp2718
sS'hydrocephalus'
p2719
g3
((lp2720
g69
ag51
ag599
ag38
ag964
ag325
atRp2721
sS'bundle-branch block'
p2722
g3
((lp2723
g129
ag130
ag131
ag147
ag133
ag474
ag135
ag136
ag137
ag79
ag139
ag140
ag141
ag142
ag143
ag144
ag138
ag146
ag668
ag148
atRp2724
sS'chromosome aberrations'
p2725
g3
((lp2726
g300
ag338
ag946
ag963
ag590
ag291
ag1211
ag299
ag303
ag780
ag1186
ag1006
ag295
ag1187
ag290
ag114
ag704
ag1188
ag65
ag320
ag110
ag116
ag342
ag341
ag895
aS'DB00847'
p2727
ag95
ag308
ag310
ag574
ag515
ag117
atRp2728
sS'migraine without aura'
p2729
g3
((lp2730
g2612
aS'DB00315'
p2731
ag675
ag838
aS'DB00918'
p2732
ag636
atRp2733
sS'multiple endocrine neoplasia'
p2734
g3
((lp2735
g307
ag665
ag17
ag2386
atRp2736
sS'mycobacterium infections, nontuberculous'
p2737
g3
((lp2738
g224
ag167
ag168
ag1421
ag232
ag1477
ag617
ag350
ag279
ag271
ag352
ag172
ag1928
ag178
ag354
ag267
ag257
ag914
ag916
ag101
ag358
ag278
ag281
atRp2739
sS'precancerous conditions'
p2740
g3
((lp2741
g25
ag411
ag412
ag413
ag631
ag200
ag414
ag373
ag386
ag326
ag320
ag581
ag702
ag237
ag2241
ag370
atRp2742
sS'myasthenia gravis'
p2743
g3
((lp2744
g1059
ag230
ag231
ag1130
ag59
ag233
ag782
ag268
ag53
ag94
ag1063
ag57
ag1779
ag1064
ag1065
ag66
ag258
ag154
ag88
ag1398
ag90
ag95
ag73
ag1168
atRp2745
sS'dystonia'
p2746
g3
((lp2747
g632
ag1983
ag1547
ag1984
aS'DB06288'
p2748
ag244
aS'DB01238'
p2749
ag538
ag2145
ag1989
ag1151
ag1990
ag1545
ag1150
ag1993
ag262
ag861
ag1074
ag2347
ag1204
ag2551
ag1503
ag2118
ag952
ag605
aS'DB00246'
p2750
ag1995
ag1548
ag1997
atRp2751
sS'tourette syndrome'
p2752
g3
((lp2753
g1543
ag632
ag2508
ag1547
aS'DB00289'
p2754
ag1545
ag2749
ag538
ag1986
ag1990
ag1005
ag2659
ag1992
ag861
ag2347
ag1983
ag2551
ag1996
ag2118
ag1991
aS'DB00176'
p2755
ag2750
ag1995
ag539
ag2176
atRp2756
sS'migraine disorders'
p2757
g3
((lp2758
S'DB00953'
p2759
aS'DB00952'
p2760
ag403
ag228
ag333
ag1330
ag837
ag1499
ag1211
ag838
ag2145
ag2732
ag23
ag437
ag2464
ag839
aS'DB00998'
p2761
ag2612
aS'DB06706'
p2762
ag636
ag633
ag259
ag262
ag240
ag797
aS'DB00216'
p2763
ag2731
ag81
ag675
ag144
ag778
ag635
ag77
ag2110
ag1498
ag1632
ag2348
ag841
aS'DB00241'
p2764
ag2613
ag1205
ag470
ag539
ag1997
atRp2765
sS'cholelithiasis'
p2766
g3
((lp2767
g307
ag909
ag365
ag374
ag581
ag1877
ag1091
ag18
atRp2768
sS'retroviridae infections'
p2769
g3
((lp2770
g508
ag1457
ag100
atRp2771
sS'hearing disorders'
p2772
g3
((lp2773
g69
ag245
ag89
ag54
ag55
ag278
ag253
ag136
ag74
ag386
ag281
ag101
ag105
ag85
atRp2774
sS'proteostasis deficiencies'
p2775
g3
((lp2776
g324
atRp2777
sS'heart septal defects, atrial'
p2778
g3
((lp2779
g494
ag169
ag236
atRp2780
sS'ovarian cysts'
p2781
g3
((lp2782
g811
ag537
ag152
ag562
ag206
ag214
ag205
ag199
ag200
ag213
ag1310
ag812
ag560
ag557
ag218
ag1569
atRp2783
sS'cholecystitis'
p2784
g3
((lp2785
g273
ag403
ag1922
ag6
ag229
ag1069
ag246
ag74
ag365
ag2290
ag374
ag425
ag1877
atRp2786
sS'disorders of excessive somnolence'
p2787
g3
((lp2788
g1041
ag629
ag2116
ag538
ag2118
ag1044
ag1211
ag1986
ag2119
ag1775
ag1991
atRp2789
sS'seminoma'
p2790
g3
((lp2791
g87
ag338
ag285
ag95
ag110
ag399
atRp2792
sS'orbital diseases'
p2793
g3
((lp2794
g51
ag905
ag614
ag90
ag620
ag604
ag231
ag388
ag73
ag1913
atRp2795
sS'myositis, inclusion body'
p2796
g3
((lp2797
g90
atRp2798
sS'hemoglobinuria, paroxysmal'
p2799
g3
((lp2800
g67
ag513
ag90
ag236
ag30
ag73
ag515
atRp2801
sS'autoimmune diseases of the nervous system'
p2802
g3
((lp2803
g231
atRp2804
sS'intestinal pseudo-obstruction'
p2805
g3
((lp2806
g307
ag1064
ag281
ag2145
atRp2807
sS'male urogenital diseases'
p2808
g3
((lp2809
g168
ag167
ag172
atRp2810
sS'pterygium'
p2811
g3
((lp2812
g308
ag963
atRp2813
sS'pancreatitis, chronic'
p2814
g3
((lp2815
g307
ag1091
atRp2816
sS'restless legs syndrome'
p2817
g3
((lp2818
g23
ag244
ag2116
ag538
ag632
ag1173
ag2549
ag2550
ag2119
ag30
ag1358
ag1548
atRp2819
sS'eye abnormalities'
p2820
g3
((lp2821
g386
ag413
ag390
atRp2822
sS'breast diseases'
p2823
g3
((lp2824
g1204
ag811
ag44
ag946
ag206
ag205
ag200
ag558
ag710
ag812
ag562
aS'DB00378'
p2825
atRp2826
sS'myelodysplastic syndromes'
p2827
g3
((lp2828
g300
ag68
ag506
ag614
ag11
ag1183
ag13
ag231
ag291
ag509
ag30
ag342
ag372
ag303
ag413
ag1184
ag710
ag1186
ag295
ag1187
ag290
ag67
ag340
ag133
ag511
ag1188
ag633
ag73
ag116
ag377
ag338
ag341
ag895
ag905
ag412
ag90
ag95
ag822
ag1189
ag574
ag515
ag131
atRp2829
sS'dermatitis'
p2830
g3
((lp2831
g293
ag245
ag240
ag90
ag229
ag602
ag567
ag73
ag876
ag156
ag249
ag1229
ag88
ag292
ag591
ag389
ag388
atRp2832
sS'xanthomatosis, cerebrotendinous'
p2833
g3
((lp2834
g374
ag365
ag673
atRp2835
sS'ileus'
p2836
g3
((lp2837
g2468
ag1784
ag2466
atRp2838
sS'lymphoma, large b-cell, diffuse'
p2839
g3
((lp2840
g302
ag963
ag339
ag231
ag291
ag338
ag299
ag303
ag369
ag413
ag11
ag292
ag294
ag295
ag290
ag340
ag114
ag703
ag704
ag110
ag116
ag342
ag87
ag341
ag895
ag90
ag95
ag293
ag73
ag399
ag575
ag312
atRp2841
sS'colitis'
p2842
g3
((lp2843
g286
ag69
ag546
ag53
ag90
ag238
ag272
ag420
ag2383
ag184
ag733
ag282
ag366
ag189
ag2241
ag2585
atRp2844
sS'facial nerve diseases'
p2845
g3
((lp2846
g44
ag90
atRp2847
sS'thrombocytosis'
p2848
g3
((lp2849
g300
ag236
ag30
ag574
ag515
ag711
ag295
atRp2850
sS'alcoholism'
p2851
g3
((lp2852
g546
ag364
ag548
ag431
aS'DB00659'
p2853
ag334
ag2508
ag1653
ag420
ag244
ag182
ag77
ag58
ag1696
ag1784
ag476
ag1005
ag636
ag1700
ag1150
ag1992
ag2509
ag1444
ag1445
ag1309
ag154
ag1149
ag1499
ag1983
ag1775
ag156
ag1074
ag2256
ag1707
ag475
ag1406
ag1994
ag1996
ag1076
atRp2854
sS'kidney failure, chronic'
p2855
g3
((lp2856
g96
ag364
ag39
ag11
ag7
ag13
ag231
ag46
ag30
ag16
ag495
ag49
ag52
ag53
ag80
ag57
ag59
ag70
ag467
ag9
ag62
ag19
ag17
ag66
ag36
ag653
ag270
ag67
ag69
ag511
ag42
ag72
ag463
ag45
ag76
ag79
ag10
ag83
ag24
ag15
ag85
ag86
ag88
ag89
ag90
ag476
ag104
ag97
ag99
ag73
ag236
ag103
ag18
ag2025
ag105
atRp2857
sS'cysts'
p2858
g3
((lp2859
g546
ag44
ag1055
ag412
ag229
ag271
ag964
ag388
ag2402
ag702
atRp2860
sS'diabetes insipidus, neurogenic'
p2861
g3
((lp2862
g40
ag971
atRp2863
sS'factor vii deficiency'
p2864
g3
((lp2865
g494
ag201
ag215
ag209
atRp2866
sS'odontogenic cysts'
p2867
g3
((lp2868
g2241
atRp2869
sS'astigmatism'
p2870
g3
((lp2871
g877
ag308
ag1383
atRp2872
sS'gingival overgrowth'
p2873
g3
((lp2874
g88
ag168
ag465
ag250
ag67
ag49
atRp2875
sS'lymphatic abnormalities'
p2876
g3
((lp2877
g110
ag352
ag1054
atRp2878
sS'multiple myeloma'
p2879
g3
((lp2880
g338
ag1183
ag339
ag231
ag291
ag12
ag708
aS'DB08889'
p2881
ag299
ag293
ag292
ag294
ag203
ag295
ag210
ag290
ag340
ag211
ag1188
ag116
ag14
ag87
ag341
ag342
ag305
ag90
ag95
ag217
ag73
ag515
ag575
ag1491
ag312
atRp2882
sS'hyperparathyroidism'
p2883
g3
((lp2884
g210
ag1089
ag15
ag211
ag8
ag9
ag58
ag10
ag202
ag7
ag203
ag11
ag36
ag12
ag13
ag16
ag17
ag18
ag19
atRp2885
sS'eye neoplasms'
p2886
g3
((lp2887
g299
ag341
ag338
ag303
ag291
ag963
ag92
ag285
ag95
ag398
ag308
ag73
ag295
atRp2888
sS'iris diseases'
p2889
g3
((lp2890
g519
ag2218
ag984
ag621
ag521
ag715
ag455
ag2222
atRp2891
sS'tuberculosis'
p2892
g3
((lp2893
g197
ag224
ag167
ag7
ag232
ag1477
ag1466
ag350
ag249
ag859
ag172
ag476
ag16
ag256
ag1557
ag260
ag178
ag263
ag264
ag74
aS'DB00314'
p2894
ag267
aS'DB08903'
p2895
ag257
ag914
ag90
ag278
ag101
ag916
ag917
atRp2896
sS'hepatolenticular degeneration'
p2897
g3
((lp2898
g477
ag94
ag30
ag389
atRp2899
sS'skin diseases, genetic'
p2900
g3
((lp2901
g409
atRp2902
sS'digestive system fistula'
p2903
g3
((lp2904
g307
atRp2905
sS'pulmonary fibrosis'
p2906
g3
((lp2907
g129
ag53
ag303
ag90
ag91
ag78
ag65
ag94
ag95
ag238
ag110
ag733
ag73
ag1037
ag515
ag182
ag231
ag312
atRp2908
sS'diffuse cerebral sclerosis of schilder'
p2909
g3
((lp2910
g633
ag154
atRp2911
sS'precursor t-cell lymphoblastic leukemia-lymphoma'
p2912
g3
((lp2913
g341
ag895
aS'DB01280'
p2914
ag293
ag292
ag295
atRp2915
sS'carcinoma, papillary'
p2916
g3
((lp2917
g299
ag241
ag412
ag963
ag369
ag285
ag155
ag123
ag308
ag572
ag17
atRp2918
sS'biliary tract diseases'
p2919
g3
((lp2920
g1893
ag273
ag105
ag1903
ag43
ag365
ag2290
ag374
ag1922
ag1877
ag1091
atRp2921
sS'respiratory tract neoplasms'
p2922
g3
((lp2923
g102
ag182
ag1282
atRp2924
sS'sexually transmitted diseases'
p2925
g3
((lp2926
g909
ag227
ag214
ag168
ag253
ag358
ag508
ag1309
ag279
ag167
ag424
ag229
ag352
ag172
ag281
ag557
ag420
ag182
ag1490
atRp2927
sS'hypoplastic left heart syndrome'
p2928
g3
((lp2929
g2214
ag404
atRp2930
sS'cardiovascular diseases'
p2931
g3
((lp2932
g96
ag856
ag364
ag670
ag39
ag658
ag7
ag660
ag1538
ag169
ag857
ag2106
aS'DB00930'
p2933
ag49
ag384
ag494
ag437
ag1537
ag326
ag650
ag858
ag859
ag60
ag682
ag214
ag61
ag9
ag1005
ag681
ag173
ag16
ag459
ag198
ag653
ag580
ag237
ag98
ag673
ag860
ag42
ag458
ag476
ag71
ag502
ag675
ag986
ag742
ag649
ag688
ag862
ag93
ag37
ag456
ag104
ag655
ag1093
ag277
ag189
ag24
ag175
ag579
atRp2934
sS'uterine diseases'
p2935
g3
((lp2936
g537
ag562
ag214
ag205
ag200
ag1310
ag710
ag1308
ag702
ag557
ag218
ag1307
ag208
atRp2937
sS'urogenital abnormalities'
p2938
g3
((lp2939
g702
atRp2940
sS'alcohol-related disorders'
p2941
g3
((lp2942
g1406
ag546
ag2853
ag1784
atRp2943
sS'nephrosis'
p2944
g3
((lp2945
g299
ag197
ag73
ag154
ag90
atRp2946
sS'jaw diseases'
p2947
g3
((lp2948
g210
ag212
ag419
ag202
ag216
ag217
ag14
ag12
atRp2949
sS'respiration disorders'
p2950
g3
((lp2951
g774
ag777
ag1062
ag1069
ag188
ag182
atRp2952
sS'uveitis'
p2953
g3
((lp2954
g197
ag403
ag507
ag59
ag1477
ag366
ag325
ag53
ag303
ag293
ag57
ag424
ag292
ag388
ag231
ag67
ag567
ag116
ag88
ag90
ag95
ag73
ag879
atRp2955
sS'lysosomal storage diseases'
p2956
g3
((lp2957
g444
ag2711
atRp2958
sS'lewy body disease'
p2959
g3
((lp2960
g1448
ag538
ag835
ag2276
ag2118
ag520
ag665
atRp2961
sS'neuroectodermal tumors, primitive, peripheral'
p2962
g3
((lp2963
g299
ag87
ag338
ag95
ag397
ag295
atRp2964
sS'gastrointestinal diseases'
p2965
g3
((lp2966
g307
ag302
ag1537
ag59
ag1822
ag235
ag226
ag433
ag420
ag1089
ag434
ag2382
ag1090
ag57
ag2145
ag762
ag264
ag210
ag228
ag260
ag237
ag281
ag304
ag1823
ag602
ag403
ag350
ag81
ag2383
ag137
ag2468
ag1307
ag338
ag303
ag212
ag2348
ag238
ag1935
ag216
ag437
ag2384
ag733
ag378
atRp2967
sS'charcot-marie-tooth disease'
p2968
g3
((lp2969
g384
ag1413
ag24
ag295
ag2273
atRp2970
sS'urticaria'
p2971
g3
((lp2972
g1552
ag226
ag1496
ag240
aS'DB08801'
p2973
ag227
ag1555
ag1089
ag598
ag249
aS'DB00427'
p2974
ag259
ag262
ag1556
ag265
ag1558
ag1553
ag1560
ag77
ag603
ag273
ag90
ag1468
ag73
ag1205
ag607
atRp2975
sS'lipodystrophy, familial partial'
p2976
g3
((lp2977
g682
atRp2978
sS'lipid metabolism, inborn errors'
p2979
g3
((lp2980
g374
ag463
ag365
ag1368
atRp2981
sS'immunologic deficiency syndromes'
p2982
g3
((lp2983
g51
ag73
ag368
ag133
ag1088
ag316
ag90
ag95
ag424
ag320
ag389
ag131
ag118
atRp2984
sS'vascular diseases'
p2985
g3
((lp2986
g225
ag658
ag7
ag660
ag42
ag364
ag494
ag44
ag404
ag859
ag1117
ag476
ag837
ag64
ag187
ag236
ag775
ag675
ag741
ag16
ag1632
ag185
ag405
ag561
ag189
ag657
atRp2987
sS'diabetic angiopathies'
p2988
g3
((lp2989
g96
ag2447
ag39
ag658
ag660
ag836
ag2449
ag2106
ag49
ag52
ag80
ag646
ag682
ag651
ag311
ag404
ag681
ag653
ag580
ag673
ag38
ag45
ag502
ag741
ag742
ag688
ag37
ag456
ag104
ag1093
ag2456
ag189
ag657
ag579
atRp2990
sS'cranial nerve diseases'
p2991
g3
((lp2992
g23
ag244
ag44
ag90
ag231
ag424
ag73
atRp2993
sS'musculoskeletal diseases'
p2994
g3
((lp2995
g813
ag756
ag7
aS'DB00786'
p2996
ag77
ag16
atRp2997
sS'hemorrhagic disorders'
p2998
g3
((lp2999
g773
ag494
ag225
ag252
ag90
ag236
ag201
ag215
ag779
ag971
ag73
ag515
ag656
ag209
atRp3000
sS'albinism, oculocutaneous'
p3001
g3
((lp3002
g538
ag648
atRp3003
sS'nephritis'
p3004
g3
((lp3005
g36
ag53
ag90
ag231
ag95
ag73
atRp3006
sS'alpha-thalassemia'
p3007
g3
((lp3008
g30
ag574
atRp3009
sS'liposarcoma, myxoid'
p3010
g3
((lp3011
g2566
atRp3012
sS'epilepsy, frontal lobe'
p3013
g3
((lp3014
g1005
ag636
ag244
ag1695
ag1705
atRp3015
sS'ventricular outflow obstruction'
p3016
g3
((lp3017
g668
ag143
ag546
ag458
ag142
ag672
atRp3018
sS'thrombocytopenia'
p3019
g3
((lp3020
g645
ag136
ag302
ag963
ag8
ag201
ag232
ag647
ag279
ag633
ag231
ag510
ag239
ag68
ag372
ag398
ag508
ag299
ag494
ag53
ag1000
ag291
ag822
ag369
ag343
ag658
ag247
ag569
ag663
ag710
ag1261
ag294
ag971
ag1007
ag654
ag1006
ag295
ag1187
ag339
ag290
ag301
ag340
ag304
ag703
ag704
ag1188
ag354
ag73
ag87
ag241
ag110
ag116
ag399
ag342
ag575
ag236
ag338
ag303
ag773
ag257
ag980
ag341
ag895
ag305
ag90
ag2469
ag94
ag95
ag495
ag514
ag308
ag280
ag209
ag574
ag139
ag515
ag690
ag657
ag285
ag312
atRp3021
sS'lymphoma, non-hodgkin'
p3022
g3
((lp3023
g302
ag963
aS'DB00791'
p3024
ag231
ag285
ag291
ag338
ag299
ag53
ag303
ag2123
ag369
ag343
ag133
ag292
ag398
ag294
ag1186
ag1136
ag295
ag290
ag340
ag114
ag703
ag704
ag1188
ag110
ag116
ag342
ag575
ag339
ag87
ag341
ag895
ag305
ag90
ag95
ag822
ag293
ag73
ag399
ag515
ag131
ag118
ag1491
ag312
atRp3025
sS'tic disorders'
p3026
g3
((lp3027
g244
ag2749
ag538
ag539
ag1543
ag1545
ag1983
ag1986
ag2755
ag2754
ag1996
ag1991
ag1992
atRp3028
sS'arrhythmia, sinus'
p3029
g3
((lp3030
g129
ag130
ag140
ag135
ag136
ag266
ag137
ag79
ag139
ag141
ag144
ag138
ag146
ag143
atRp3031
sS'behcet syndrome'
p3032
g3
((lp3033
g88
ag53
ag303
ag90
ag238
ag316
ag65
ag95
ag249
ag67
ag116
ag73
ag219
ag231
ag741
ag388
atRp3034
sS'myositis ossificans'
p3035
g3
((lp3036
g210
atRp3037
sS'astrocytoma'
p3038
g3
((lp3039
g138
ag130
ag44
ag338
ag726
ag728
ag1399
ag92
ag285
ag730
ag569
ag398
ag964
ag36
ag305
ag343
ag339
ag295
ag312
atRp3040
sS'heart septal defects, ventricular'
p3041
g3
((lp3042
g138
ag130
ag405
ag461
ag79
atRp3043
sS'dyskeratosis congenita'
p3044
g3
((lp3045
g340
atRp3046
sS'aneurysm'
p3047
g3
((lp3048
g236
ag225
ag95
ag73
ag90
atRp3049
sS'motor neuron disease'
p3050
g3
((lp3051
g729
ag95
ag975
atRp3052
sS'carcinoma, basal cell'
p3053
g3
((lp3054
g566
ag410
ag411
ag412
ag413
ag25
ag414
ag386
ag110
ag370
ag389
ag303
atRp3055
sS'gallbladder diseases'
p3056
g3
((lp3057
g1877
ag374
ag365
ag2290
atRp3058
sS'pheochromocytoma'
p3059
g3
((lp3060
g982
ag6
ag1330
ag984
ag154
ag2145
ag538
ag293
ag292
ag398
ag665
ag781
ag17
ag2386
ag307
aS'DB00765'
p3061
ag270
ag2214
ag462
ag465
ag776
ag156
ag144
ag1502
ag1399
ag1503
ag454
ag469
ag539
atRp3062
sS'spinal cord diseases'
p3063
g3
((lp3064
g364
ag90
ag599
ag231
ag604
ag964
ag44
ag73
ag1150
atRp3065
sS'basal cell nevus syndrome'
p3066
g3
((lp3067
g566
ag25
ag414
atRp3068
sS'malformations of cortical development'
p3069
g3
((lp3070
g312
atRp3071
sS'brain stem neoplasms'
p3072
g3
((lp3073
g285
ag398
ag338
ag295
ag569
atRp3074
sS'intestinal obstruction'
p3075
g3
((lp3076
g307
ag86
ag238
ag549
ag78
ag2145
ag1064
ag253
ag1091
ag64
atRp3077
sS'tuberculosis, cutaneous'
p3078
g3
((lp3079
g257
ag224
ag263
ag278
ag232
ag267
ag7
ag1557
ag16
atRp3080
sS'hearing loss, sensorineural'
p3081
g3
((lp3082
g285
ag293
ag245
ag303
ag1315
ag511
ag95
ag231
ag90
ag74
ag292
ag431
ag741
ag733
ag73
ag85
ag105
ag89
atRp3083
sS'kartagener syndrome'
p3084
g3
((lp3085
g189
atRp3086
sS'pulmonary veno-occlusive disease'
p3087
g3
((lp3088
g657
ag169
atRp3089
sS'esophageal diseases'
p3090
g3
((lp3091
g1823
ag1089
ag51
ag2381
ag1055
ag1290
ag1293
ag1185
ag90
ag216
ag531
ag1822
ag1297
ag352
ag2384
ag73
ag1190
ag652
ag1779
atRp3092
sS'nose diseases'
p3093
g3
((lp3094
g51
ag614
ag357
ag90
ag73
ag531
ag124
ag1256
aS'DB06694'
p3095
ag182
aS'DB00935'
p3096
atRp3097
sS'porokeratosis'
p3098
g3
((lp3099
g413
ag409
ag414
ag411
atRp3100
sS'brain neoplasms'
p3101
g3
((lp3102
g302
ag726
ag963
ag339
ag285
ag46
ag730
ag338
ag241
ag299
ag44
ag368
ag303
ag727
ag343
ag25
ag304
ag569
ag292
ag398
ag250
aS'DB06703'
p3103
ag665
ag370
ag1508
ag371
ag87
ag295
ag36
ag293
ag728
ag703
aS'DB00597'
p3104
ag372
ag38
ag1116
ag731
ag1008
ag110
ag629
ag341
ag305
ag92
ag95
ag732
ag155
ag514
ag964
ag733
ag73
ag399
ag879
ag312
atRp3105
sS'urinary bladder neoplasms'
p3106
g3
((lp3107
g338
ag963
ag755
ag285
ag1379
ag299
ag303
ag369
ag343
ag25
ag301
ag370
ag295
ag597
ag703
ag110
ag342
ag87
ag241
ag377
ag1009
ag95
ag308
ag280
ag399
atRp3108
sS'exocrine pancreatic insufficiency'
p3109
g3
((lp3110
g763
ag1089
ag1091
ag276
ag253
atRp3111
sS'hyperlipidemia, familial combined'
p3112
g3
((lp3113
g653
ag580
ag673
ag583
ag986
ag579
ag655
ag859
ag857
ag582
atRp3114
sS'epidermolysis bullosa'
p3115
g3
((lp3116
g357
ag90
ag215
ag249
ag326
ag250
ag73
atRp3117
sS'lung diseases'
p3118
g3
((lp3119
g197
ag224
ag229
ag231
ag51
ag53
ag303
ag55
ag293
ag279
ag292
ag239
ag184
ag129
ag78
ag350
ag267
ag741
ag110
ag182
ag90
ag278
ag95
ag91
ag73
ag189
ag515
ag312
atRp3120
sS'virus diseases'
p3121
g3
((lp3122
g341
ag53
ag133
aS'DB00478'
p3123
ag316
ag1464
ag90
ag95
ag424
ag1468
ag510
ag1485
ag733
ag73
ag879
ag131
ag17
ag1423
atRp3124
sS'multiple endocrine neoplasia type 2b'
p3125
g3
((lp3126
g665
ag17
atRp3127
sS'testicular diseases'
p3128
g3
((lp3129
g206
ag537
ag213
ag152
atRp3130
sS'arthritis, psoriatic'
p3131
g3
((lp3132
g409
ag303
ag90
ag238
ag435
ag67
atRp3133
sS'polyendocrinopathies, autoimmune'
p3134
g3
((lp3135
g161
ag154
ag156
atRp3136
sS'multiple endocrine neoplasia type 2a'
p3137
g3
((lp3138
g648
ag41
ag665
ag17
ag2386
atRp3139
sS'sleep disorders'
p3140
g3
((lp3141
g1041
ag2507
ag1496
ag548
aS'DB01437'
p3142
ag835
ag632
ag1499
ag1211
ag1693
ag2118
ag23
ag244
aS'DB01198'
p3143
ag1501
ag2667
ag58
ag1775
ag1986
ag1696
ag1698
aS'DB00231'
p3144
ag1700
aS'DB00402'
p3145
ag1991
ag1992
ag2509
ag262
ag861
ag2254
ag1074
ag156
ag1149
ag1043
ag1707
ag2262
ag2551
ag2256
aS'DB00980'
p3146
ag2116
ag1044
aS'DB00418'
p3147
ag538
ag634
ag2119
ag1042
aS'DB01246'
p3148
ag1996
atRp3149
sS'glomerulonephritis, membranous'
p3150
g3
((lp3151
g88
ag53
ag90
ag59
ag231
ag57
ag95
ag67
ag116
ag73
atRp3152
sS'von willebrand disease, type 1'
p3153
g3
((lp3154
g971
atRp3155
sS'hartnup disease'
p3156
g3
((lp3157
g1194
ag648
ag726
ag597
ag866
ag793
ag193
ag757
ag476
atRp3158
sS'basal ganglia diseases'
p3159
g3
((lp3160
g548
ag474
aS'DB01624'
p3161
ag1543
aS'DB01623'
p3162
ag2274
ag1983
ag1547
ag1984
ag838
ag1546
ag1985
ag1464
ag2748
aS'DB00875'
p3163
ag1545
ag2749
ag1989
ag538
ag1988
ag1147
ag58
ag839
aS'DB00408'
p3164
ag1151
ag1990
ag2255
ag262
ag861
ag2117
ag2347
ag2145
ag1653
aS'DB01267'
p3165
ag2551
ag475
ag1503
ag2348
ag2118
ag1468
ag1994
ag605
ag2750
ag1995
ag1548
ag1997
atRp3166
sS'biotinidase deficiency'
p3167
g3
((lp3168
g870
atRp3169
sS'keloid'
p3170
g3
((lp3171
g567
ag414
ag388
ag156
atRp3172
sS'paralyses, familial periodic'
p3173
g3
((lp3174
g97
ag1612
ag325
ag66
atRp3175
sS'neural tube defects'
p3176
g3
((lp3177
g364
ag726
ag946
ag413
ag633
ag1310
ag386
ag964
atRp3178
sS'suppuration'
p3179
g3
((lp3180
g286
ag261
ag227
ag273
ag226
ag105
ag909
ag229
ag253
ag246
ag74
ag43
ag876
ag624
ag278
ag281
ag1081
ag420
atRp3181
sS'rhabdomyolysis'
p3182
g3
((lp3183
g653
ag580
ag67
ag89
ag673
ag650
ag65
ag463
ag233
ag986
ag583
ag655
ag1076
ag76
ag827
ag1147
ag782
ag182
ag579
ag649
atRp3184
sS'ataxia'
p3185
g3
((lp3186
g244
ag1707
ag1385
ag631
ag1333
ag632
ag546
ag326
ag250
ag698
ag431
ag325
ag1074
atRp3187
sS'tonic pupil'
p3188
g3
((lp3189
g621
atRp3190
sS'barrett esophagus'
p3191
g3
((lp3192
g1089
ag2381
ag2382
ag1823
ag25
ag1822
ag370
aS'DB01129'
p3193
ag2241
atRp3194
sS'cerebral arterial diseases'
p3195
g3
((lp3196
g325
atRp3197
sS'apraxias'
p3198
g3
((lp3199
g538
atRp3200
sS'sweat gland diseases'
p3201
g3
((lp3202
g413
ag412
atRp3203
sS'inflammatory bowel diseases'
p3204
g3
((lp3205
g67
ag53
ag303
ag412
ag90
ag7
ag762
ag1935
ag57
ag420
ag1187
ag704
ag238
ag282
ag189
ag184
ag16
ag73
ag2585
atRp3206
sS'bronchiectasis'
p3207
g3
((lp3208
g176
ag350
ag273
ag226
ag105
ag55
ag168
ag246
ag78
ag279
ag876
ag239
ag229
ag281
ag1270
atRp3209
sS'sarcoma, clear cell'
p3210
g3
((lp3211
g299
ag397
ag295
atRp3212
sS'cholestasis, intrahepatic'
p3213
g3
((lp3214
g226
ag631
ag365
ag1368
ag374
ag199
atRp3215
sS'renal tubular transport, inborn errors'
p3216
g3
((lp3217
g263
ag7
ag84
ag193
ag97
ag757
ag16
atRp3218
sS'gynecomastia'
p3219
g3
((lp3220
g1089
ag537
ag813
ag2001
ag152
ag811
ag205
ag200
ag213
ag206
aS'DB00894'
p3221
ag1310
ag710
ag812
ag61
ag2219
ag702
aS'DB01128'
p3222
ag66
ag1466
atRp3223
sS'spondylarthropathies'
p3224
g3
((lp3225
g238
ag303
atRp3226
sS'sick sinus syndrome'
p3227
g3
((lp3228
g129
ag130
ag140
ag135
ag143
ag142
ag144
ag138
ag146
atRp3229
sS'intellectual disability'
p3230
g3
((lp3231
g1194
ag364
ag648
ag726
ag548
ag590
ag1584
ag3161
ag597
ag1692
ag1195
ag1983
ag633
aS'DB00933'
p3232
ag1074
ag244
aS'DB01239'
p3233
ag1988
ag58
ag1986
ag250
ag2603
ag1990
ag431
ag636
ag1991
ag2509
ag24
ag490
ag631
ag476
ag1545
ag793
ag193
ag284
ag629
ag475
ag698
ag474
ag103
atRp3234
sS'epidermodysplasia verruciformis'
p3235
g3
((lp3236
g414
atRp3237
sS'friedreich ataxia'
p3238
g3
((lp3239
g326
ag30
atRp3240
sS'hyperthyroxinemia'
p3241
g3
((lp3242
g123
atRp3243
sS'calculi'
p3244
g3
((lp3245
g1584
ag1169
ag18
atRp3246
sS'canavan disease'
p3247
g3
((lp3248
g729
ag728
atRp3249
sS'persistent fetal circulation syndrome'
p3250
g3
((lp3251
g189
ag657
ag169
ag405
ag6
atRp3252
sS'niemann-pick disease, type c'
p3253
g3
((lp3254
g2711
atRp3255
sS'rhabdomyosarcoma, alveolar'
p3256
g3
((lp3257
g338
ag87
ag95
ag397
ag295
atRp3258
sS'moyamoya disease'
p3259
g3
((lp3260
g325
atRp3261
sS'cardiomyopathy, dilated'
p3262
g3
((lp3263
g138
ag661
ag2301
ag988
ag299
ag44
ag80
ag1497
ag683
ag665
ag145
ag66
ag129
ag130
ag989
ag685
ag134
ag462
ag463
ag45
ag686
ag675
ag79
ag668
ag89
ag469
ag470
atRp3264
sS'gram-positive bacterial infections'
p3265
g3
((lp3266
g1916
ag347
ag226
ag348
ag615
ag43
ag420
ag617
ag286
ag909
ag351
ag271
ag172
ag1421
ag1930
ag274
ag227
ag178
ag354
aS'DB01764'
p3267
ag1800
ag355
ag105
ag69
ag273
ag1909
ag278
ag101
aS'DB01369'
p3268
ag167
ag619
ag623
ag359
ag281
ag283
ag358
atRp3269
sS'neuroectodermal tumors'
p3270
g3
((lp3271
g665
atRp3272
sS'gonadal dysgenesis, 46,xy'
p3273
g3
((lp3274
g206
ag537
ag213
ag152
ag205
atRp3275
sS'neoplasms, glandular and epithelial'
p3276
g3
((lp3277
g299
ag285
ag372
ag301
ag241
ag280
atRp3278
sS'turner syndrome'
p3279
g3
((lp3280
g811
ag537
ag513
ag152
ag206
ag590
ag205
ag199
ag213
ag558
ag1310
ag812
ag1482
ag562
atRp3281
sS'agranulocytosis'
p3282
g3
((lp3283
g274
ag2549
ag612
ag338
ag1895
ag252
ag658
ag474
ag1385
ag507
ag933
ag43
ag2274
ag235
ag1918
ag157
ag54
ag617
ag613
ag132
ag299
ag1089
ag51
ag1903
ag303
ag55
ag1271
ag246
ag58
ag279
ag249
ag704
ag122
ag239
ag506
ag295
ag531
ag1293
ag861
ag114
ag909
ag1912
ag63
ag135
ag73
ag74
ag137
ag56
ag82
ag342
ag1934
ag69
ag341
ag895
ag105
ag90
ag238
ag316
ag358
ag475
ag95
ag622
ag605
ag623
ag1922
ag101
ag399
ag125
atRp3284
sS'respiratory hypersensitivity'
p3285
g3
((lp3286
g603
ag598
ag240
ag184
ag1282
ag188
ag181
ag182
atRp3287
sS'machado-joseph disease'
p3288
g3
((lp3289
g324
atRp3290
sS'renal aminoacidurias'
p3291
g3
((lp3292
g1194
ag36
ag24
ag648
ag726
ag490
ag7
ag1584
ag597
ag866
ag793
ag193
ag757
ag16
atRp3293
sS'niemann-pick diseases'
p3294
g3
((lp3295
g857
atRp3296
sS'vitamin d deficiency'
p3297
g3
((lp3298
g11
ag7
ag13
ag15
ag10
ag386
ag9
ag16
ag17
ag19
atRp3299
sS'retinal detachment'
p3300
g3
((lp3301
g959
ag385
ag90
ag231
ag424
ag382
ag387
ag388
ag733
ag73
ag390
ag325
ag1485
atRp3302
sS'infertility, male'
p3303
g3
((lp3304
g1204
ag205
ag537
ag513
ag152
ag326
ag238
ag339
ag389
ag213
ag1310
ag206
ag741
ag352
ag702
ag463
ag562
ag515
ag1569
atRp3305
sS'burkitt lymphoma'
p3306
g3
((lp3307
g299
ag293
ag87
ag341
ag302
ag303
ag90
ag704
ag343
ag95
ag292
ag320
ag110
ag73
ag895
ag879
ag339
ag295
ag338
ag114
atRp3308
sS'transposition of great vessels'
p3309
g3
((lp3310
g668
ag79
ag404
atRp3311
sS'parkinson disease'
p3312
g3
((lp3313
g1413
ag648
ag333
ag1330
ag1369
ag520
ag1547
ag1984
ag2661
ag30
ag1985
ag1464
ag737
aS'DB00579'
p3314
ag1545
ag538
ag665
ag1151
ag476
ag1970
ag1992
ag1993
ag270
ag84
ag729
ag861
ag1173
ag2117
ag635
ag1204
ag1448
ag2115
ag2116
ag2348
ag2276
ag2118
ag1468
ag952
ag1994
ag605
ag2119
ag1995
ag469
ag1358
ag1996
ag1548
atRp3315
sS'hearing loss, high-frequency'
p3316
g3
((lp3317
g285
ag74
atRp3318
sS'tetralogy of fallot'
p3319
g3
((lp3320
g668
ag130
ag461
ag404
ag144
ag138
atRp3321
sS'diabetes mellitus, type 1'
p3322
g3
((lp3323
g307
ag2450
ag88
ag80
ag45
ag72
ag57
ag2449
ag59
ag502
ag156
ag1093
ag67
ag2106
ag651
ag311
ag24
ag2453
ag2457
atRp3324
sS'hypospadias'
p3325
g3
((lp3326
g537
ag152
ag213
ag206
ag1070
ag702
ag1539
atRp3327
sS'vitamin a deficiency'
p3328
g3
((lp3329
g797
ag326
ag384
ag413
ag386
ag7
ag30
ag389
ag16
atRp3330
sS'diabetes mellitus, type 2'
p3331
g3
((lp3332
g96
ag856
ag2447
ag39
ag646
ag2448
ag1833
ag2449
ag857
ag2453
ag2106
aS'DB06335'
p3333
aS'DB08882'
p3334
ag2933
aS'DB00912'
p3335
ag1720
ag2451
ag649
ag80
ag682
ag651
ag694
ag311
ag49
aS'DB01252'
p3336
aS'DB01251'
p3337
ag459
ag653
ag580
ag984
ag673
ag860
ag45
ag72
ag24
ag71
ag583
ag502
aS'DB06203'
p3338
ag2450
ag742
ag2454
ag688
aS'DB01261'
p3339
ag862
ag93
ag37
ag456
aS'DB04876'
p3340
ag104
ag655
ag1093
ag98
ag2456
ag2457
ag579
ag1094
atRp3341
sS'nasopharyngeal neoplasms'
p3342
g3
((lp3343
g299
ag1282
ag302
ag303
ag369
ag301
ag285
ag95
ag44
ag110
ag377
ag280
ag295
ag241
atRp3344
sS'hypogonadism'
p3345
g3
((lp3346
g1204
ag811
ag537
ag513
ag152
ag206
ag205
ag199
ag562
ag213
ag154
ag156
ag812
ag901
ag530
ag389
ag218
ag1310
ag1569
atRp3347
sS'papillomavirus infections'
p3348
g3
((lp3349
g364
ag703
ag24
ag414
ag102
ag2241
atRp3350
sS'glomerulonephritis'
p3351
g3
((lp3352
g225
ag403
ag474
ag231
ag59
ag53
ag94
ag57
ag60
ag457
ag83
ag36
ag67
ag114
ag704
ag236
ag45
ag116
ag89
ag90
ag80
ag95
ag97
ag73
ag106
atRp3353
sS'brachial plexus neuritis'
p3354
g3
((lp3355
g253
atRp3356
sS'dysautonomia, familial'
p3357
g3
((lp3358
g469
ag462
ag837
ag1632
atRp3359
sS'thanatophoric dysplasia'
p3360
g3
((lp3361
g41
atRp3362
sS'blood coagulation disorders'
p3363
g3
((lp3364
g773
ag494
ag225
ag654
ag252
ag644
ag236
ag201
ag90
ag215
ag495
ag779
ag971
ag73
ag656
ag209
atRp3365
sS'thalassemia'
p3366
g3
((lp3367
g453
ag364
ag506
ag326
ag511
ag509
ag384
ag30
ag574
ag515
atRp3368
sS'xeroderma pigmentosum'
p3369
g3
((lp3370
g320
ag412
ag308
ag1211
ag341
ag574
ag117
atRp3371
sS'lymphoma, large-cell, anaplastic'
p3372
g3
((lp3373
g299
ag341
ag338
ag303
ag90
ag95
ag110
ag73
ag399
ag295
atRp3374
sS'cryptorchidism'
p3375
g3
((lp3376
g537
ag152
ag2321
ag205
ag213
ag206
ag702
ag1569
atRp3377
sS'hernia, diaphragmatic'
p3378
g3
((lp3379
g413
ag405
ag293
ag292
ag189
atRp3380
sS'uveitis, anterior'
p3381
g3
((lp3382
g519
ag197
ag403
ag231
aS'DB00896'
p3383
ag1477
ag366
ag1383
ag53
ag2464
aS'DB00873'
p3384
ag293
ag424
ag292
ag388
aS'DB00963'
p3385
ag81
aS'DB06781'
p3386
ag90
ag1389
ag73
ag102
ag1423
atRp3387
sS'hyperlipoproteinemia type iii'
p3388
g3
((lp3389
g580
ag673
ag583
ag986
ag582
ag859
ag581
ag985
ag579
atRp3390
sS'cell transformation, neoplastic'
p3391
g3
((lp3392
g300
ag1413
ag341
ag648
ag726
ag1183
ag413
ag200
ag308
ag445
ag780
ag397
ag320
ag702
ag310
ag574
ag377
ag879
ag1187
atRp3393
sS'arthritis, rheumatoid'
p3394
g3
((lp3395
g197
ag364
ag429
ag430
ag1537
ag231
ag1538
ag154
ag1195
ag235
ag29
ag1580
ag433
ag366
ag403
ag237
ag242
ag1605
ag53
ag303
aS'DB00991'
p3396
ag94
ag440
ag1606
ag292
ag2584
ag271
ag77
ag388
ag228
ag959
ag67
ag31
ag1607
ag758
ag434
ag373
ag156
ag81
ag116
ag477
ag1307
ag378
ag1864
ag90
ag238
ag316
ag2608
ag95
ag436
ag437
ag73
ag438
ag439
ag435
atRp3397
sS'glycosuria'
p3398
g3
((lp3399
g197
ag97
ag384
ag2449
ag1093
ag2106
ag651
ag311
atRp3400
sS'adenomatous polyps'
p3401
g3
((lp3402
g373
atRp3403
sS'cystinosis'
p3404
g3
((lp3405
g726
ag2727
ag94
ag1584
ag41
ag48
atRp3406
sS'purine-pyrimidine metabolism, inborn errors'
p3407
g3
((lp3408
g131
ag263
ag133
ag193
ag1455
ag103
atRp3409
sS'leukemia, b-cell'
p3410
g3
((lp3411
g340
ag822
ag131
ag95
ag118
atRp3412
sS'hyperlipidemias'
p3413
g3
((lp3414
g856
ag986
ag582
ag1720
ag1203
ag649
ag650
ag153
ag682
ag326
ag859
ag1482
ag985
ag653
ag580
ag67
ag673
ag236
ag583
ag502
ag374
ag857
ag88
ag365
ag862
ag655
ag581
ag579
atRp3415
sS'ocular motility disorders'
p3416
g3
((lp3417
g244
ag90
ag538
ag231
ag604
ag1065
atRp3418
sS'glycogen storage disease type v'
p3419
g3
((lp3420
g36
atRp3421
sS'prostatic neoplasms'
p3422
g3
((lp3423
g2218
ag338
ag11
ag7
ag207
ag199
aS'DB06772'
p3424
ag169
ag531
aS'DB04845'
p3425
ag984
ag280
ag237
ag12
aS'DB06699'
p3426
ag342
ag592
ag299
ag44
ag2001
ag727
ag206
ag369
ag205
ag2321
ag200
ag214
ag294
ag702
ag1568
ag203
ag715
ag533
ag16
ag815
ag208
ag210
aS'DB04894'
p3427
ag537
aS'DB00665'
p3428
ag152
ag211
ag730
ag213
ag731
ag375
ag326
ag14
ag377
aS'DB08899'
p3429
ag1569
ag241
ag817
aS'DB05812'
p3430
ag95
ag1522
ag514
ag2219
aS'DB00269'
p3431
ag217
ag73
ag399
ag218
ag3222
ag285
atRp3432
sS'periodontal diseases'
p3433
g3
((lp3434
g286
ag226
ag229
ag419
ag76
ag384
ag271
ag352
ag758
ag1005
ag420
atRp3435
sS'dementia, vascular'
p3436
g3
((lp3437
g1448
ag364
ag520
ag835
ag861
ag730
ag2276
ag1983
ag778
atRp3438
sS'lupus vulgaris'
p3439
g3
((lp3440
g257
ag224
ag263
ag278
ag232
ag137
ag267
ag7
ag271
ag1557
ag16
ag457
atRp3441
sS'heart block'
p3442
g3
((lp3443
g138
ag143
ag1331
ag1332
ag292
ag141
ag142
ag244
ag148
ag293
ag136
ag2371
ag60
ag1334
ag134
ag250
ag140
ag187
ag129
ag130
ag461
ag133
ag70
ag462
ag135
ag75
ag137
ag79
ag139
ag147
ag146
ag2368
ag185
ag90
ag73
ag144
ag678
ag131
atRp3444
sS'diabetes insipidus, nephrogenic'
p3445
g3
((lp3446
g40
ag58
ag971
ag60
ag162
atRp3447
sS'chromosome disorders'
p3448
g3
((lp3449
g341
ag946
ag590
ag704
ag320
ag515
atRp3450
sS'diabetic retinopathy'
p3451
g3
((lp3452
g580
ag387
ag38
ag37
ag2449
ag2453
ag1093
ag1957
ag385
ag581
ag2456
ag311
ag390
ag657
ag388
atRp3453
sS'sarcoma'
p3454
g3
((lp3455
g300
ag338
ag963
ag285
ag291
ag397
ag367
ag299
ag303
ag369
ag301
ag2566
ag398
ag1321
ag370
ag295
ag114
ag110
ag87
ag241
ag95
ag280
ag399
ag575
atRp3456
sS'bone marrow diseases'
p3457
g3
((lp3458
g364
ag302
ag963
ag339
ag285
ag291
ag30
ag338
ag299
ag53
ag303
ag246
ag1186
ag295
ag1187
ag340
ag703
ag704
ag87
ag110
ag342
ag980
ag341
ag895
ag90
ag95
ag822
ag73
ag399
ag515
ag312
atRp3459
sS'jaundice, neonatal'
p3460
g3
((lp3461
g1308
ag797
ag631
ag209
ag201
ag1818
atRp3462
sS'hypoparathyroidism'
p3463
g3
((lp3464
g15
ag7
ag8
ag11
ag10
ag202
ag13
ag16
ag17
ag18
atRp3465
sS'tuberous sclerosis'
p3466
g3
((lp3467
g637
ag52
ag671
atRp3468
sS'afibrinogenemia'
p3469
g3
((lp3470
g773
ag236
atRp3471
sS'epilepsy, benign neonatal'
p3472
g3
((lp3473
g1706
atRp3474
sS'myoglobinuria'
p3475
g3
((lp3476
g463
ag233
ag1076
atRp3477
sS'paresis'
p3478
g3
((lp3479
g227
ag231
ag424
atRp3480
sS'smith-lemli-opitz syndrome'
p3481
g3
((lp3482
g946
ag673
atRp3483
sS'diabetes insipidus'
p3484
g3
((lp3485
g1515
ag244
ag1308
ag89
ag40
ag2449
ag58
ag154
ag60
ag156
ag97
ag2657
ag581
ag971
ag1659
ag75
ag1612
ag66
ag85
atRp3486
sS'choroid plexus neoplasms'
p3487
g3
((lp3488
g285
ag338
ag295
atRp3489
sS'muscular dystrophies'
p3490
g3
((lp3491
g36
ag90
ag463
ag233
ag1334
ag3314
ag326
ag468
ag73
ag103
atRp3492
sS'carotid artery diseases'
p3493
g3
((lp3494
g653
ag44
ag649
ag673
ag658
ag236
ag46
ag857
ag655
ag859
ag325
atRp3495
sS'spinal diseases'
p3496
g3
((lp3497
g51
ag44
ag601
ag90
ag7
ag231
ag604
ag3104
ag235
ag964
ag1070
ag388
atRp3498
sS'polycystic kidney diseases'
p3499
g3
((lp3500
g50
ag52
ag53
ag90
ag1595
ag92
ag231
ag97
atRp3501
sS'ectodermal dysplasia'
p3502
g3
((lp3503
g122
atRp3504
sS'tumor virus infections'
p3505
g3
((lp3506
g88
ag703
ag414
ag435
ag508
ag95
ag424
ag870
ag67
ag733
ag102
ag2241
atRp3507
sS'gonadal dysgenesis'
p3508
g3
((lp3509
g537
ag152
ag205
ag213
ag206
ag562
atRp3510
sS'fibrosis'
p3511
g3
((lp3512
g300
ag39
ag46
ag44
ag510
ag19
ag52
ag80
ag57
ag682
ag61
ag1091
ag66
ag459
ag959
ag67
ag45
ag72
ag71
ag741
ag110
ag59
ag88
aS'DB00538'
p3513
ag37
ag98
ag308
ag1037
ag189
ag104
atRp3514
sS'sensation disorders'
p3515
g3
((lp3516
g1070
ag247
ag141
atRp3517
sS'marfan syndrome'
p3518
g3
((lp3519
g458
ag39
atRp3520
sS'neoplasms, germ cell and embryonal'
p3521
g3
((lp3522
g299
ag87
ag285
ag338
ag303
ag963
ag413
ag247
ag703
ag95
ag397
ag241
ag110
ag116
ag399
ag295
atRp3523
sS'skin diseases, vesiculobullous'
p3524
g3
((lp3525
g69
ag2584
ag53
ag89
ag412
ag90
ag413
ag94
ag57
ag1225
ag59
ag31
ag409
ag249
ag591
ag73
ag65
atRp3526
sS'leukemia, myeloid'
p3527
g3
((lp3528
g300
ag338
ag11
ag1183
ag1385
ag291
ag397
ag3024
ag342
ag299
ag51
ag303
ag413
ag133
ag780
ag709
ag1186
ag16
ag1006
ag295
ag1187
ag67
ag340
ag703
ag704
ag1188
ag73
ag38
ag320
ag116
ag377
ag341
ag895
ag90
ag95
ag822
ag1189
ag574
ag399
ag515
ag131
ag575
atRp3529
sS'multiple system atrophy'
p3530
g3
((lp3531
g538
ag1994
ag665
ag737
atRp3532
sS'hidradenitis suppurativa'
p3533
g3
((lp3534
g232
ag286
ag25
ag412
ag257
atRp3535
sS'gonadal disorders'
p3536
g3
((lp3537
g537
ag152
atRp3538
sS'brain diseases'
p3539
g3
((lp3540
g269
ag1695
ag1131
ag431
ag507
ag244
ag44
ag368
ag303
ag538
ag293
ag136
ag292
ag250
ag910
ag599
ag231
ag36
ag728
ag511
ag730
ag633
ag38
ag51
ag776
ag2383
ag477
ag87
ag90
ag92
ag604
ag964
ag73
atRp3541
sS'adenoma'
p3542
g3
((lp3543
g364
ag7
ag154
ag237
ag2145
ag44
ag161
ag293
ag292
ag1357
ag206
ag123
ag530
ag971
ag17
ag66
ag307
ag1993
ag537
ag152
ag122
ag213
ag373
ag529
ag156
ag1204
ag2348
ag1358
atRp3544
sS'osteoarthritis'
p3545
g3
((lp3546
g429
ag1537
ag2609
ag231
ag1538
ag1368
ag235
ag433
ag366
ag403
ag242
ag434
ag44
ag1000
ag3396
ag440
ag388
ag2261
ag228
ag959
ag237
ag1606
ag445
ag373
ag1307
ag81
ag77
ag378
ag1864
ag90
ag2608
ag437
ag758
ag189
ag438
ag439
ag1539
atRp3547
sS'arteriovenous malformations'
p3548
g3
((lp3549
g546
ag44
ag1054
ag780
ag964
ag1055
ag2402
ag64
atRp3550
sS'aneurysm, dissecting'
p3551
g3
((lp3552
g494
ag225
ag86
ag236
ag1282
ag776
ag44
ag982
ag781
ag182
atRp3553
sS'ichthyosis, lamellar'
p3554
g3
((lp3555
g409
atRp3556
sS'anemia, hemolytic'
p3557
g3
((lp3558
g197
ag246
aS'DB01438'
p3559
ag232
ag154
ag510
ag30
ag364
ag909
ag94
ag136
ag249
ag326
ag823
ag270
ag511
ag236
ag48
ag139
ag116
ag257
ag90
ag91
ag56
ag941
ag238
ag73
atRp3560
sS'craniofacial abnormalities'
p3561
g3
((lp3562
g413
atRp3563
sS'neurilemmoma'
p3564
g3
((lp3565
g92
ag964
ag44
atRp3566
sS'stomach neoplasms'
p3567
g3
((lp3568
g300
ag302
ag963
ag240
ag2996
ag306
ag285
ag1822
ag310
ag420
ag226
ag299
ag1089
ag350
ag2382
ag369
ag247
ag295
ag307
ag237
ag304
ag1823
ag384
ag2383
ag241
ag377
ag338
ag303
ag341
ag2381
ag1009
ag95
ag308
ag280
ag312
atRp3569
sS'puberty, precocious'
p3570
g3
((lp3571
g811
ag537
ag813
ag152
ag1567
ag214
ag531
ag213
ag154
ag3221
ag156
ag710
ag812
ag1522
ag206
ag205
ag218
ag1569
ag208
atRp3572
sS'thoracic neoplasms'
p3573
g3
((lp3574
g299
ag87
ag303
ag95
ag397
ag665
ag295
atRp3575
sS'hyperpigmentation'
p3576
g3
((lp3577
g129
ag519
ag410
ag31
ag413
ag271
ag110
ag574
ag570
atRp3578
sS'infertility'
p3579
g3
((lp3580
g205
ag537
ag114
ag152
ag339
ag213
ag1310
ag710
ag206
ag818
ag702
ag1568
ag562
ag218
ag1569
atRp3581
sS'sarcoma, ewing'
p3582
g3
((lp3583
g299
ag300
ag87
ag338
ag303
ag963
ag291
ag95
ag397
ag398
ag515
ag295
atRp3584
sS'hypopituitarism'
p3585
g3
((lp3586
g197
ag537
ag152
ag90
ag40
ag213
ag24
ag528
ag154
ag292
ag1310
ag206
ag123
ag530
ag971
ag73
ag293
ag156
atRp3587
sS'peripheral nervous system diseases'
p3588
g3
((lp3589
g224
ag302
ag431
ag306
ag285
ag291
ag1499
ag1060
ag3425
ag231
ag1135
ag141
ag23
ag244
ag435
ag247
ag249
ag250
ag294
ag1698
ag476
ag145
ag295
ag129
ag979
ag354
ag1467
ag1069
ag1092
ag241
ag90
ag91
ag1406
ag95
ag280
ag73
ag399
ag575
atRp3590
sS'aortic stenosis, subvalvular'
p3591
g3
((lp3592
g144
atRp3593
sS'respiratory tract diseases'
p3594
g3
((lp3595
g185
ag1282
ag78
ag876
ag1281
ag182
ag187
atRp3596
sS'leukemia, megakaryoblastic, acute'
p3597
g3
((lp3598
g338
ag341
ag895
atRp3599
sS'epilepsy, absence'
p3600
g3
((lp3601
g1691
ag630
ag632
ag154
ag1693
ag325
ag244
ag1694
ag250
ag636
ag1775
ag633
ag631
ag1074
ag635
ag1704
ag629
ag1707
ag698
ag637
ag1150
ag284
ag1169
atRp3602
sS'spondylarthritis'
p3603
g3
((lp3604
g238
ag303
atRp3605
sS'nervous system neoplasms'
p3606
g3
((lp3607
g341
ag295
ag303
atRp3608
sS'carcinoma, medullary'
p3609
g3
((lp3610
g50
ag307
ag1008
ag155
ag665
ag572
ag17
ag2386
atRp3611
sS'carcinoid tumor'
p3612
g3
((lp3613
g307
ag1080
ag1823
ag333
ag154
ag1822
ag2613
ag311
ag1205
ag665
ag17
ag2386
atRp3614
sS'adenoma, liver cell'
p3615
g3
((lp3616
g2289
ag44
atRp3617
sS'scleroderma, systemic'
p3618
g3
((lp3619
g197
ag300
ag276
ag231
ag597
ag169
ag53
ag303
ag94
ag404
ag780
ag457
ag757
ag465
ag110
ag980
ag90
ag117
ag80
ag95
ag1037
ag73
ag657
atRp3620
sS'endometriosis'
p3621
g3
((lp3622
g811
ag207
ag199
ag200
ag366
ag268
ag813
ag205
ag814
ag558
ag710
ag702
ag2825
ag208
ag537
ag152
ag1567
ag214
ag1310
ag561
ag562
ag1569
ag559
ag560
ag818
ag557
ag218
atRp3623
sS'deficiency diseases'
p3624
g3
((lp3625
g1194
ag453
ag364
ag797
ag726
ag326
ag384
ag1584
ag597
ag730
ag866
ag793
ag870
ag386
ag7
ag664
ag1196
ag30
ag389
ag16
ag2273
atRp3626
sS'platelet storage pool deficiency'
p3627
g3
((lp3628
g468
ag971
atRp3629
sS'congenital abnormalities'
p3630
g3
((lp3631
g364
ag946
ag1306
ag793
ag1307
ag386
ag389
atRp3632
sS'myoclonic epilepsies, progressive'
p3633
g3
((lp3634
g324
atRp3635
sS'methemoglobinemia'
p3636
g3
((lp3637
g2081
ag223
ag461
ag3559
ag384
aS'DB00157'
p3638
ag48
ag276
ag941
ag77
ag249
ag141
atRp3639
sS'edema'
p3640
g3
((lp3641
g546
ag2657
ag403
ag40
ag1659
ag231
ag1282
ag1553
ag235
ag1611
ag366
ag1612
ag325
ag49
ag2674
ag44
ag293
ag60
ag682
ag388
ag1091
aS'DB06691'
p3642
ag66
ag228
ag262
ag237
ag240
ag203
ag2030
ag758
ag38
ag75
ag81
ag378
ag436
ag2241
ag85
ag2028
ag688
ag89
ag90
ag676
ag97
ag437
ag2613
ag73
ag1205
ag189
ag842
ag439
ag292
atRp3643
sS'substance-related disorders'
p3644
g3
((lp3645
g546
ag136
ag2598
ag679
ag3142
ag2600
ag2610
aS'DB01433'
p3646
ag2853
ag1211
ag1983
ag1693
ag334
ag1075
aS'DB01227'
p3647
ag1559
ag2754
aS'DB01151'
p3648
ag177
aS'DB00504'
p3649
ag77
aS'DB00830'
p3650
ag1397
ag1695
ag58
ag2254
ag1775
ag2118
ag1986
ag1696
ag1151
ag1698
ag3144
ag1005
ag1043
ag1784
ag1991
ag1992
aS'DB00189'
p3651
ag2261
ag259
ag262
ag1044
ag3145
ag461
aS'DB00937'
p3652
ag1068
ag837
ag631
ag1333
ag1309
ag1074
ag1499
ag1069
ag215
ag1149
ag2371
ag539
ag777
ag182
ag1700
ag1707
ag2262
ag632
ag2551
ag2256
ag1072
ag1632
ag2368
ag1996
ag2257
ag2609
ag1073
ag3147
aS'DB00404'
p3653
ag3314
ag3143
ag1705
ag1995
ag1406
aS'DB01558'
p3654
ag219
ag1539
ag1490
ag1076
atRp3655
sS'von willebrand diseases'
p3656
g3
((lp3657
g773
ag236
ag779
ag971
atRp3658
sS'hypopigmentation'
p3659
g3
((lp3660
g300
ag951
ag388
atRp3661
sS'leydig cell tumor'
p3662
g3
((lp3663
g537
ag152
ag205
ag213
ag206
ag702
ag562
atRp3664
sS'encephalocele'
p3665
g3
((lp3666
g364
ag38
atRp3667
sS'central nervous system diseases'
p3668
g3
((lp3669
g51
ag341
ag895
ag303
ag1131
ag704
ag46
ag507
ag90
ag95
ag424
ag1466
ag231
ag44
ag73
ag599
ag295
atRp3670
sS'hyperostosis'
p3671
g3
((lp3672
g412
ag404
atRp3673
sS'stevens-johnson syndrome'
p3674
g3
((lp3675
g512
ag277
ag90
ag231
ag631
ag244
ag633
ag250
ag73
ag284
ag103
ag507
ag256
atRp3676
sS'aspartylglucosaminuria'
p3677
g3
((lp3678
g444
ag445
ag728
ag2123
atRp3679
sS'pain insensitivity, congenital'
p3680
g3
((lp3681
g1073
atRp3682
sS'collagen diseases'
p3683
g3
((lp3684
g197
ag29
ag53
ag90
ag231
ag94
ag95
ag154
ag116
ag73
ag757
ag457
ag388
atRp3685
sS'lentigo'
p3686
g3
((lp3687
g413
ag570
atRp3688
sS'venous thromboembolism'
p3689
g3
((lp3690
g494
ag1260
ag290
ag236
ag201
ag2322
ag1449
ag663
aS'DB06713'
p3691
ag495
ag209
ag557
ag1442
ag215
atRp3692
sS'tay-sachs disease'
p3693
g3
((lp3694
g444
ag2711
atRp3695
sS'arterial occlusive diseases'
p3696
g3
((lp3697
g225
ag658
ag474
ag660
ag836
ag46
ag325
ag494
ag44
ag646
ag1261
ag3103
ag1117
ag236
ag404
ag550
ag654
ag837
ag775
ag1116
ag675
ag741
ag86
ag980
ag1632
ag840
ag405
ag495
ag657
atRp3698
sS'asthma'
p3699
g3
((lp3700
g166
ag197
ag240
aS'DB00651'
p3701
ag6
aS'DB00221'
p3702
aS'DB01410'
p3703
ag567
ag528
ag154
ag1554
ag170
ag231
ag1555
ag1231
ag138
aS'DB00874'
p3704
ag1332
ag171
ag804
ag293
ag90
ag2371
aS'DB00549'
p3705
ag292
aS'DB00676'
p3706
ag2434
ag388
ag598
ag140
aS'DB00180'
p3707
ag187
aS'DB01408'
p3708
ag175
ag176
ag130
ag179
ag133
aS'DB00744'
p3709
ag549
ag2026
ag73
ag265
ag1558
ag156
ag174
ag181
ag182
ag603
ag1783
ag146
aS'DB01366'
p3710
ag2368
ag184
ag185
ag180
ag183
ag186
ag2433
ag97
ag188
ag596
ag1399
ag1560
ag189
aS'DB01303'
p3711
ag607
atRp3712
sS'spastic paraplegia, hereditary'
p3713
g3
((lp3714
g1150
atRp3715
sS'precursor cell lymphoblastic leukemia-lymphoma'
p3716
g3
((lp3717
g300
ag364
ag302
ag614
ag2914
ag231
ag291
ag338
ag367
ag299
ag51
ag309
ag303
ag343
ag1185
ag424
ag292
ag1731
ag1006
ag295
ag1187
ag293
ag67
ag340
ag703
ag704
ag1188
ag620
ag1173
ag342
ag87
ag341
ag895
ag90
ag95
ag2123
ag1189
ag73
ag1190
ag515
ag575
atRp3718
sS'dna virus infections'
p3719
g3
((lp3720
g102
ag510
atRp3721
sS'kidney diseases, cystic'
p3722
g3
((lp3723
g50
ag546
ag44
ag92
ag1055
ag64
atRp3724
sS'brain diseases, metabolic'
p3725
g3
((lp3726
g36
ag728
ag633
ag463
ag730
ag193
ag848
ag374
ag365
atRp3727
sS'glomerulosclerosis, focal segmental'
p3728
g3
((lp3729
g299
ag59
ag88
ag53
ag52
ag39
ag90
ag45
ag72
ag57
ag95
ag37
ag67
ag116
ag73
ag231
atRp3730
sS'tetany'
p3731
g3
((lp3732
g15
ag7
ag1063
ag1657
ag16
ag17
atRp3733
sS'narcolepsy'
p3734
g3
((lp3735
g1501
ag2116
ag538
ag1044
ag2176
ag1991
ag3314
ag1986
ag2601
ag1992
ag1775
ag1996
ag1490
aS'DB00344'
p3736
atRp3737
sS'liver diseases'
p3738
g3
((lp3739
g224
ag726
ag432
ag546
ag365
ag1368
ag633
ag2289
ag30
ag730
ag44
ag53
ag94
ag326
ag694
ag201
ag490
ag511
ag762
ag631
ag48
ag78
ag1116
ag2290
ag374
ag1877
ag77
ag88
ag90
ag266
ag215
ag1093
ag209
ag73
atRp3740
sS'aortic valve stenosis'
p3741
g3
((lp3742
g668
ag494
ag461
ag673
ag130
ag7
ag236
ag674
ag857
ag675
ag79
ag144
ag138
ag653
ag649
atRp3743
sS'urinary bladder diseases'
p3744
g3
((lp3745
S'DB00209'
p3746
ag1817
aS'DB00496'
p3747
ag599
ag1282
ag95
ag2217
ag2221
ag1090
ag2220
ag2215
atRp3748
sS'urea cycle disorders, inborn'
p3749
g3
((lp3750
g490
atRp3751
sS'lymphopenia'
p3752
g3
((lp3753
g73
ag53
ag90
ag316
ag231
ag1252
ag95
ag569
ag156
ag822
aS'DB00198'
p3754
ag1186
ag398
atRp3755
sS'thyroid neoplasms'
p3756
g3
((lp3757
g299
ag50
ag1008
ag122
ag307
ag900
ag155
ag17
ag123
ag665
ag124
ag157
ag572
ag125
ag295
ag2386
atRp3758
sS'ehlers-danlos syndrome'
p3759
g3
((lp3760
g384
ag866
ag971
atRp3761
sS'lymphohistiocytosis, hemophagocytic'
p3762
g3
((lp3763
g51
ag67
ag338
ag90
ag293
ag231
ag95
ag292
ag73
ag295
atRp3764
sS'rett syndrome'
p3765
g3
((lp3766
g633
atRp3767
sS'erectile dysfunction'
p3768
g3
((lp3769
g2507
ag404
ag984
ag169
aS'DB06267'
p3770
ag2001
ag206
ag715
ag537
ag152
ag2370
ag775
ag213
ag675
ag1204
ag1502
ag2552
aS'DB00820'
p3771
ag1994
ag901
ag189
ag2222
atRp3772
sS'muscular diseases'
p3773
g3
((lp3774
g679
ag7
ag231
ag597
ag233
ag986
ag508
ag44
ag649
ag1063
ag1147
ag326
ag388
ag1064
ag1065
ag1067
ag1779
ag36
ag653
ag29
ag673
ag65
ag463
ag2117
ag266
ag1149
ag857
ag1074
ag90
ag655
ag581
ag73
ag579
atRp3775
sS'multiple endocrine neoplasia type 1'
p3776
g3
((lp3777
g307
atRp3778
sS'myxoma'
p3779
g3
((lp3780
g959
ag44
atRp3781
sS'metabolic diseases'
p3782
g3
((lp3783
g16
ag7
ag1584
ag463
ag30
ag476
ag103
atRp3784
sS'pre-eclampsia'
p3785
g3
((lp3786
g982
ag946
ag6
ag1330
ag364
ag325
ag60
ag326
ag457
ag270
ag1308
ag384
ag236
ag75
ag776
ag465
ag562
ag1311
ag1074
ag89
ag495
ag97
ag189
ag657
atRp3787
sS'renal insufficiency'
p3788
g3
((lp3789
g39
ag11
ag7
ag59
ag45
ag52
ag57
ag294
ag83
ag36
ag290
ag67
ag69
ag46
ag78
ag502
ag44
ag76
ag86
ag88
ag495
ag98
ag99
ag100
ag103
ag2469
ag104
ag47
atRp3790
sS'keratoderma, palmoplantar'
p3791
g3
((lp3792
g409
ag648
ag412
ag413
ag415
ag1228
atRp3793
sS'skin diseases, viral'
p3794
g3
((lp3795
g102
ag1485
ag414
ag424
atRp3796
sS'cicatrix'
p3797
g3
((lp3798
g50
ag959
ag44
ag303
ag412
ag308
ag388
atRp3799
sS'purpura, thrombotic thrombocytopenic'
p3800
g3
((lp3801
g67
ag90
ag474
ag660
ag231
ag658
ag95
ag236
ag73
ag550
ag657
ag295
atRp3802
sS'prolactinoma'
p3803
g3
((lp3804
g307
ag1993
ag537
ag1204
ag152
ag205
ag154
ag569
ag702
ag1358
atRp3805
sS'language development disorders'
p3806
g3
((lp3807
g182
atRp3808
sS'malabsorption syndromes'
p3809
g3
((lp3810
g245
ag326
ag229
ag762
ag201
ag215
ag38
ag10
ag386
ag7
ag364
ag209
ag30
ag389
ag420
ag16
atRp3811
sS'lymphoma'
p3812
g3
((lp3813
g302
ag963
ag339
ag755
ag291
ag338
ag299
ag53
ag303
ag369
ag343
ag569
ag292
ag398
ag294
ag1186
ag1006
ag295
ag1187
ag293
ag340
ag114
ag703
ag704
ag1188
ag73
ag320
ag110
ag116
ag342
ag515
ag87
ag341
ag895
ag305
ag90
ag95
ag822
ag574
ag399
ag879
ag575
ag118
ag1491
ag312
atRp3814
sS'citrullinemia'
p3815
g3
((lp3816
g24
ag1195
atRp3817
sS'long qt syndrome'
p3818
g3
((lp3819
g138
ag143
ag935
ag6
ag861
ag1331
ag1983
ag141
ag142
ag1545
ag148
ag136
ag548
ag145
ag129
ag130
ag1445
ag178
ag134
ag1444
ag458
ag674
ag1309
ag2347
ag144
ag139
ag1498
ag2348
ag1503
ag2118
ag689
ag2750
ag281
ag981
ag1168
ag1504
atRp3820
sS'spinocerebellar ataxias'
p3821
g3
((lp3822
g324
atRp3823
sS'hyperkeratosis, epidermolytic'
p3824
g3
((lp3825
g409
atRp3826
sS'respiratory distress syndrome, newborn'
p3827
g3
((lp3828
g1311
ag403
ag89
ag946
ag6
ag293
ag405
ag292
ag156
ag188
ag185
ag189
ag1067
ag187
atRp3829
sS'mitochondrial encephalomyopathies'
p3830
g3
((lp3831
g463
ag848
ag320
atRp3832
sS'fistula'
p3833
g3
((lp3834
g307
ag2386
atRp3835
sS'hepatitis b, chronic'
p3836
g3
((lp3837
g959
ag320
ag100
ag1453
ag1454
ag510
ag1455
ag1456
ag193
ag1136
ag1457
atRp3838
sS'acrocephalosyndactylia'
p3839
g3
((lp3840
g24
ag1413
ag597
ag412
ag757
atRp3841
sS'sandhoff disease'
p3842
g3
((lp3843
g444
ag2711
atRp3844
sS'hypersensitivity, immediate'
p3845
g3
((lp3846
g262
ag1552
ag240
ag598
ag1468
ag227
ag1554
ag188
ag1555
ag181
ag1560
ag182
ag607
ag2434
ag3642
atRp3847
sS'digeorge syndrome'
p3848
g3
((lp3849
g413
atRp3850
sS'ovarian neoplasms'
p3851
g3
((lp3852
g811
ag302
ag963
ag301
ag200
ag291
ag397
ag812
ag68
ag304
ag299
ag303
ag369
ag205
ag247
ag2566
ag710
ag206
ag1568
ag815
ag295
ag537
ag152
ag214
ag1007
ag372
ag213
ag1310
ag110
ag116
ag562
ag377
ag342
ag515
ag338
ag87
ag241
ag895
ag1009
ag95
ag514
ag308
ag280
ag733
ag399
ag218
ag285
atRp3853
sS'porphyrias'
p3854
g3
((lp3855
g437
ag29
ag31
ag511
ag8
ag631
ag25
ag193
ag942
ag30
ag1266
ag477
ag199
atRp3856
sS'hodgkin disease'
p3857
g3
((lp3858
g338
ag963
ag3024
ag291
ag299
ag303
ag369
ag343
ag301
ag398
ag339
ag295
ag340
ag114
ag703
ag704
ag110
ag116
ag342
ag87
ag341
ag895
ag305
ag90
ag316
ag95
ag514
ag73
ag399
ag515
ag575
ag312
atRp3859
sS'dengue'
p3860
g3
((lp3861
g231
ag940
ag932
atRp3862
sS'malnutrition'
p3863
g3
((lp3864
g324
ag364
ag7
ag386
ag30
ag389
ag16
atRp3865
sS'elliptocytosis, hereditary'
p3866
g3
((lp3867
g48
atRp3868
sS'language disorders'
p3869
g3
((lp3870
g636
ag1695
atRp3871
sS'choanal atresia'
p3872
g3
((lp3873
g122
ag308
ag157
atRp3874
sS'argininosuccinic aciduria'
p3875
g3
((lp3876
g24
ag1195
ag490
atRp3877
sS'homocystinuria'
p3878
g3
((lp3879
g1194
ag364
ag648
ag726
ag1584
ag41
ag193
ag793
ag1368
ag476
ag1286
atRp3880
sS'dysgammaglobulinemia'
p3881
g3
((lp3882
g250
ag94
atRp3883
sS'colorectal neoplasms'
p3884
g3
((lp3885
g364
ag302
ag7
ag247
ag306
ag365
ag2289
aS'DB01157'
p3886
ag366
ag299
ag301
ag16
ag237
ag1004
ag304
ag372
ag373
ag374
ag310
ag376
ag377
ag316
ag732
ag731
ag308
ag282
atRp3887
sS'eye diseases'
p3888
g3
((lp3889
g197
ag403
ag548
ag229
ag231
ag154
ag455
ag325
ag386
ag51
ag245
ag368
ag293
ag246
ag292
ag521
ag474
ag388
ag140
ag129
ag959
ag29
ag31
ag511
ag549
ag267
ag387
ag105
ag90
ag475
ag1296
ag621
ag606
ag874
ag73
ag390
ag879
ag146
atRp3890
sS'myasthenic syndromes, congenital'
p3891
g3
((lp3892
g1065
ag1130
atRp3893
sS'coagulation protein disorders'
p3894
g3
((lp3895
g201
ag215
ag209
atRp3896
sS'neuralgia'
p3897
g3
((lp3898
g2604
ag231
ag837
ag1499
ag1286
ag2601
ag141
ag23
ag244
ag424
ag388
ag1698
ag431
ag1456
ag145
ag1150
ag1702
ag253
ag1395
ag1069
ag1070
ag2609
ag2599
ag1632
ag1539
ag215
ag284
ag539
ag1489
atRp3899
sS'chronobiology disorders'
p3900
g3
((lp3901
g1042
ag1041
atRp3902
sS'hepatic veno-occlusive disease'
p3903
g3
((lp3904
g53
ag291
ag963
ag247
ag404
ag95
ag397
ag365
ag374
ag236
ag515
ag295
ag1187
atRp3905
sS'melas syndrome'
p3906
g3
((lp3907
g36
ag24
atRp3908
sS'encephalitis, viral'
p3909
g3
((lp3910
g1485
ag231
ag424
ag733
ag3754
ag102
atRp3911
sS'antithrombin iii deficiency'
p3912
g3
((lp3913
g494
ag236
ag201
ag215
ag495
ag710
ag1261
ag209
atRp3914
sS'anemia, hemolytic, congenital nonspherocytic'
p3915
g3
((lp3916
g48
ag468
atRp3917
sS'iron overload'
p3918
g3
((lp3919
g511
ag506
ag30
ag509
atRp3920
sS'germinoma'
p3921
g3
((lp3922
g87
ag241
ag338
ag303
ag285
ag95
ag397
ag110
ag399
ag295
atRp3923
sS'bone cysts'
p3924
g3
((lp3925
g231
ag90
atRp3926
sS'adrenogenital syndrome'
p3927
g3
((lp3928
g197
ag161
ag90
ag293
ag154
ag292
ag156
ag73
atRp3929
sS'hemorrhage'
p3930
g3
((lp3931
g644
ag645
ag225
ag670
ag1895
ag252
ag658
ag40
ag660
ag201
ag1260
ag647
ag2214
ag1442
aS'DB02638'
p3932
ag494
ag663
ag1261
ag971
ag236
ag231
ag1308
ag654
ag462
ag1333
ag1449
ag266
ag776
ag687
ag773
ag690
ag89
ag90
ag2469
ag215
ag95
ag495
ag779
ag209
ag73
ag469
ag515
ag656
ag711
atRp3933
sS'mycobacterium infections'
p3934
g3
((lp3935
g224
ag167
ag229
ag232
ag1477
ag239
ag350
ag279
ag249
ag271
ag352
ag172
ag1928
ag260
ag263
ag264
ag74
ag267
ag257
ag914
ag278
ag101
ag358
ag281
ag917
atRp3936
sS'liver neoplasms'
p3937
g3
((lp3938
g300
ag546
ag302
ag1183
ag301
ag306
ag200
ag291
ag397
ag310
ag2289
ag510
ag30
ag342
ag241
ag299
ag52
ag303
ag369
ag247
ag558
ag398
ag665
ag311
ag1136
ag295
ag307
ag285
ag304
ag631
ag1116
ag2290
ag44
ag110
ag572
ag338
ag86
ag87
ag320
ag377
ag95
ag155
ag514
ag792
ag308
ag280
ag399
ag312
atRp3939
sS'idiopathic pulmonary fibrosis'
p3940
g3
((lp3941
g110
ag78
atRp3942
sS'retinoschisis'
p3943
g3
((lp3944
g390
ag1400
atRp3945
sS'fanconi syndrome'
p3946
g3
((lp3947
g87
ag100
ag2727
ag11
ag7
ag1584
ag633
ag463
ag193
ag509
ag97
ag1455
ag16
atRp3948
sS'factor xii deficiency'
p3949
g3
((lp3950
g236
atRp3951
sS'genital diseases, female'
p3952
g3
((lp3953
g1895
ag946
ag168
ag199
ag43
ag876
ag777
ag1918
ag420
ag782
ag617
ag286
ag909
ag558
ag229
ag352
ag702
ag236
ag254
ag823
ag1928
ag1929
ag537
ag1922
ag703
ag253
ag414
ag1310
ag562
ag1074
ag273
ag105
ag559
ag215
ag1075
ag623
ag281
ag283
ag1925
atRp3954
sS'sex cord-gonadal stromal tumors'
p3955
g3
((lp3956
g338
ag110
atRp3957
sS'ovarian hyperstimulation syndrome'
p3958
g3
((lp3959
g537
ag152
ag205
ag1310
ag1568
ag562
ag218
ag1358
ag1569
atRp3960
sS'hepatitis'
p3961
g3
((lp3962
g197
ag53
ag726
ag90
ag704
ag94
ag266
ag365
ag374
ag30
ag73
atRp3963
sS'crigler-najjar syndrome'
p3964
g3
((lp3965
g631
atRp3966
sS'leukemia, prolymphocytic, t-cell'
p3967
g3
((lp3968
g118
atRp3969
sS'cholangitis, sclerosing'
p3970
g3
((lp3971
g88
ag53
ag90
ag238
ag73
ag365
ag374
ag310
ag282
atRp3972
sS'hypoprothrombinemias'
p3973
g3
((lp3974
g494
ag1895
ag252
ag201
ag215
ag209
ag1922
ag1924
ag656
ag823
atRp3975
sS'mononeuropathies'
p3976
g3
((lp3977
g1069
ag95
ag90
atRp3978
sS'neoplasms, connective tissue'
p3979
g3
((lp3980
g300
atRp3981
sS'aortic aneurysm, thoracic'
p3982
g3
((lp3983
g86
ag1282
ag44
atRp3984
sS'esophagitis'
p3985
g3
((lp3986
g338
aS'DB00927'
p3987
ag285
ag1822
ag531
ag68
ag1089
ag51
ag2382
ag424
ag2145
ag352
ag176
ag1293
ag1823
ag2385
ag603
ag241
ag2381
ag90
ag216
ag2384
ag733
ag73
ag1190
ag3193
atRp3988
sS'pancreatic diseases'
p3989
g3
((lp3990
g307
ag726
ag763
ag253
ag276
ag1093
ag1091
ag64
ag18
atRp3991
sS'neoplasms, multiple primary'
p3992
g3
((lp3993
g300
ag302
ag339
ag285
ag291
ag397
ag338
ag299
ag303
ag398
ag665
ag17
ag200
ag114
ag110
ag116
ag87
ag412
ag90
ag95
ag295
ag73
ag399
atRp3994
sS'huntington disease'
p3995
g3
((lp3996
g36
ag324
ag1545
ag1204
ag1398
ag728
ag1547
ag538
ag730
ag729
ag861
ag58
ag271
ag975
ag1468
ag1994
aS'DB08887'
p3997
ag84
ag1464
ag633
atRp3998
sS'candidiasis'
p3999
g3
((lp4000
g1290
ag229
ag531
ag51
ag368
ag614
ag1265
ag1185
ag1291
ag1292
ag1256
ag1266
ag1930
ag1293
ag1294
ag620
ag181
ag905
ag95
ag1296
ag1297
ag1190
ag1076
atRp4001
sS'spondylitis, ankylosing'
p4002
g3
((lp4003
g437
ag29
ag403
ag303
ag1537
ag90
ag238
ag316
ag440
ag94
ag81
ag378
ag235
ag44
ag231
ag237
ag12
ag433
ag73
ag439
ag758
atRp4004
sS'hyperlipoproteinemia type i'
p4005
g3
((lp4006
g236
atRp4007
sS'fibrous dysplasia, polyostotic'
p4008
g3
((lp4009
g307
ag537
ag152
ag205
ag3221
ag12
atRp4010
sS'vision disorders'
p4011
g3
((lp4012
g519
ag231
ag169
ag325
ag386
ag382
ag136
ag521
ag388
ag29
ag1301
ag31
ag511
ag267
ag79
ag139
ag1204
ag90
ag637
ag621
ag73
ag390
atRp4013
sS'von hippel-lindau disease'
p4014
g3
((lp4015
g155
atRp4016
sS'heart defects, congenital'
p4017
g3
((lp4018
g129
ag668
ag364
ag461
ag2467
ag236
ag405
ag989
ag169
ag266
ag215
ag79
ag1497
ag777
ag1037
ag404
ag189
ag779
ag64
ag657
ag1168
atRp4019
sS'otorhinolaryngologic diseases'
p4020
g3
((lp4021
g1893
ag261
ag273
ag226
ag229
ag272
ag266
ag279
ag43
ag235
ag239
ag782
ag286
atRp4022
sS'thrombocythemia, essential'
p4023
g3
((lp4024
g709
ag291
ag515
ag711
ag574
atRp4025
sS'pleural diseases'
p4026
g3
((lp4027
g1204
ag51
ag225
ag229
ag2613
ag182
atRp4028
sS'uremia'
p4029
g3
((lp4030
g11
ag7
ag13
ag42
ag30
ag19
ag53
ag70
ag250
ag971
ag9
ag16
ag17
ag18
ag36
ag24
ag15
ag511
ag236
ag463
ag38
ag79
ag89
ag97
atRp4031
sS'gingival diseases'
p4032
g3
((lp4033
g419
ag1080
atRp4034
sS'dyskinesias'
p4035
g3
((lp4036
g1545
ag2116
ag538
ag1994
ag2119
ag1548
atRp4037
sS'chordoma'
p4038
g3
((lp4039
g300
atRp4040
sS'hepatitis, chronic'
p4041
g3
((lp4042
g94
ag959
ag53
ag90
ag316
ag432
ag133
ag424
ag365
ag374
ag510
ag73
ag131
atRp4043
sS'paralysis'
p4044
g3
((lp4045
g197
ag2258
ag230
ag231
ag233
ag141
ag268
ag1063
ag2145
ag2260
ag1064
ag1067
ag66
ag258
aS'DB00483'
p4046
ag253
ag631
ag1070
ag140
ag90
aS'DB01226'
p4047
ag146
atRp4048
sS'medulloblastoma'
p4049
g3
((lp4050
g87
ag372
ag338
ag303
ag305
ag963
ag291
ag566
ag95
ag569
ag398
ag285
ag339
ag515
ag295
ag312
atRp4051
sS'insulin resistance'
p4052
g3
((lp4053
g2447
ag39
ag2448
ag1833
ag2106
ag682
ag206
ag651
ag694
ag311
ag459
ag653
ag580
ag860
ag71
ag861
ag213
ag583
ag502
ag156
ag2454
ag688
ag862
ag37
ag3340
ag1093
ag510
ag2456
atRp4054
sS'tyrosinemias'
p4055
g3
((lp4056
g792
ag648
ag793
atRp4057
sS'gaucher disease'
p4058
g3
((lp4059
g2711
atRp4060
sS'carcinoma, squamous cell'
p4061
g3
((lp4062
g302
ag963
ag301
ag306
ag285
ag68
ag1004
ag299
ag44
ag303
ag369
ag413
ag25
ag247
ag386
ag370
ag295
ag237
ag114
ag304
ag372
ag414
ag731
ag241
ag110
ag338
ag411
ag87
ag409
ag377
ag305
ag412
ag95
ag732
ag514
ag308
ag280
ag574
ag399
ag575
atRp4063
sS'giant cell tumors'
p4064
g3
((lp4065
g17
atRp4066
sS'albinism'
p4067
g3
((lp4068
g538
ag648
atRp4069
sS'epilepsy, generalized'
p4070
g3
((lp4071
g23
ag629
ag1074
ag628
ag630
ag1699
ag631
ag632
ag244
ag633
ag284
ag250
ag634
ag635
ag636
ag1704
ag637
atRp4072
sS'heart diseases'
p4073
g3
((lp4074
g138
ag644
ag225
ag658
ag474
ag660
ag367
ag299
ag494
ag326
ag369
ag136
ag70
ag665
ag140
ag187
ag66
ag129
ag130
ag461
ag511
ag236
ag674
ag686
ag675
ag79
ag139
ag137
ag342
ag668
ag895
ag89
ag185
ag604
ag144
ag146
ag143
atRp4075
sS'leigh disease'
p4076
g3
((lp4077
g431
ag849
ag468
ag848
atRp4078
sS'glaucoma, open-angle'
p4079
g3
((lp4080
g519
ag877
ag1386
ag1302
ag325
ag1387
ag1388
ag1389
ag1390
ag521
ag959
ag1392
ag1301
ag1396
ag1401
ag1957
ag387
ag2027
ag1400
ag621
ag308
ag1402
ag539
atRp4081
sS'cytochrome-c oxidase deficiency'
p4082
g3
((lp4083
g849
ag463
ag848
atRp4084
sS'migraine with aura'
p4085
g3
((lp4086
g2612
ag633
ag2731
ag838
ag636
ag325
atRp4087
sS'leukemia, t-cell'
p4088
g3
((lp4089
g299
ag341
ag895
ag303
ag2914
ag118
ag67
ag340
ag295
ag338
atRp4090
sS'rhabdoid tumor'
p4091
g3
((lp4092
g299
ag338
ag87
ag95
ag295
atRp4093
sS'deafness'
p4094
g3
((lp4095
g245
ag89
ag90
ag278
ag431
ag136
ag74
ag139
ag105
ag85
atRp4096
sS'neoplasms'
p4097
g3
((lp4098
g338
ag963
ag755
ag285
aS'DB00673'
p4099
ag777
ag367
ag2996
ag2566
ag702
ag1508
ag295
ag304
ag703
ag1319
ag1008
ag101
ag308
ag280
ag209
ag399
ag515
ag312
ag300
ag2465
ag306
ag3425
ag12
ag52
ag303
ag369
ag343
ag301
ag386
ag326
aS'DB00377'
p4100
ag16
ag307
ag1069
ag110
ag116
ag376
ag87
ag895
ag316
ag155
ag514
ag375
ag291
ag1320
ag671
ag68
ag299
ag569
ag398
ag294
ag815
ag370
ag1004
ag211
ag1007
ag372
ag1653
ag377
ag341
ag342
ag95
ag732
ag623
ag364
ag302
ag7
ag2609
ag201
ag2610
ag310
ag247
ag2145
ag704
ag1321
ag274
ag3886
ag1652
ag114
ag731
ag14
ag572
ag241
ag495
ag879
atRp4101
sS'mitochondrial myopathies'
p4102
g3
((lp4103
g468
ag849
ag463
ag508
ag848
atRp4104
sS'spherocytosis, hereditary'
p4105
g3
((lp4106
g97
ag364
ag468
ag30
ag1334
atRp4107
sS'pregnancy complications, neoplastic'
p4108
g3
((lp4109
g300
ag302
ag200
ag397
ag338
ag299
ag303
ag369
ag413
ag398
ag285
ag295
ag307
ag2214
ag1188
ag574
ag241
ag110
ag562
ag1204
ag87
ag341
ag895
ag90
ag95
ag73
ag399
ag1358
atRp4110
sS'acid-base imbalance'
p4111
g3
((lp4112
g97
ag325
ag76
atRp4113
sS'osteitis deformans'
p4114
g3
((lp4115
g210
ag11
ag211
ag212
ag755
ag204
ag7
ag216
ag12
ag203
ag14
ag16
ag17
atRp4116
sS'proteinuria'
p4117
g3
((lp4118
g96
ag37
ag403
ag39
ag231
ag681
ag456
ag582
ag49
ag299
ag52
ag53
ag94
ag57
ag60
ag61
ag311
ag19
ag457
ag66
ag459
ag36
ag67
ag45
ag72
ag71
ag741
ag116
ag105
ag59
ag88
ag89
ag90
ag93
ag80
ag95
ag466
ag97
ag98
ag83
ag73
ag104
ag106
atRp4119
sS'ocular hypertension'
p4120
g3
((lp4121
g519
ag877
ag3383
ag1386
ag1302
ag325
ag1387
ag1388
ag3384
ag293
ag1390
ag292
ag521
ag388
ag959
ag1392
ag1301
ag1396
ag1401
ag1389
ag2027
ag1400
ag621
ag390
ag1402
ag539
atRp4122
sS'albuminuria'
p4123
g3
((lp4124
g96
ag39
ag984
ag681
ag456
ag45
ag19
ag80
ag60
ag682
ag61
ag664
ag311
ag49
ag457
ag458
ag66
ag459
ag36
ag460
ag71
ag72
ag464
ag465
ag742
ag86
ag688
ag93
ag37
ag466
ag97
ag98
ag83
ag470
ag104
atRp4125
sS'acquired immunodeficiency syndrome'
p4126
g3
((lp4127
g224
ag1088
ag1461
ag277
ag168
ag1476
ag507
ag232
ag1463
ag531
ag279
ag1477
ag510
ag399
ag239
ag267
ag1479
ag508
ag299
ag1466
ag51
ag1203
ag368
ag614
ag592
ag1453
ag1475
ag249
ag1481
ag910
ag100
ag1483
ag1136
ag815
ag295
ag256
ag307
ag286
ag512
ag1135
ag461
ag263
ag350
ag1309
ag1484
ag1467
ag939
ag1485
ag110
ag1190
ag424
ag182
ag1092
ag257
ag320
ag914
ag3886
ag733
ag73
ag102
ag1076
atRp4128
sS'skin diseases, infectious'
p4129
g3
((lp4130
g611
ag612
ag226
ag1131
ag168
ag272
ag232
ag43
ag876
ag424
ag347
ag167
ag286
ag243
ag51
ag245
ag1926
ag255
ag279
ag239
ag229
ag271
ag251
ag352
ag172
ag254
ag353
ag105
ag1928
ag227
ag1932
ag1922
ag1294
ag354
ag624
ag74
ag350
ag267
ag355
ag356
ag257
ag273
ag89
ag357
ag358
ag623
ag281
ag1923
ag1924
ag879
atRp4131
sS'diabetes complications'
p4132
g3
((lp4133
g39
ag658
ag660
ag169
ag51
ag52
ag2145
ag682
ag651
ag311
ag653
ag673
ag2449
ag458
ag38
ag583
ag502
ag688
ag2552
ag1093
ag581
ag2456
ag104
ag2457
atRp4134
sS'corneal diseases'
p4135
g3
((lp4136
g129
ag386
ag959
ag387
ag797
ag2727
ag90
ag1420
ag167
ag1477
ag292
ag1296
ag521
ag877
ag81
ag67
ag172
ag308
ag390
ag1423
atRp4137
sS'leukemia, lymphocytic, chronic, b-cell'
p4138
g3
((lp4139
g299
ag300
ag1731
ag341
ag340
ag1189
ag338
ag133
ag291
ag90
ag95
ag118
ag822
ag67
ag294
ag116
ag73
ag342
ag131
ag295
ag290
atRp4140
sS'infant, newborn, diseases'
p4141
g3
((lp4142
g946
ag1131
ag229
ag201
ag43
ag6
ag16
ag474
ag245
ag1309
ag246
ag7
ag250
ag251
ag236
ag64
ag1293
ag227
ag1308
ag1271
ag63
ag631
ag275
ag74
ag793
ag79
ag82
ag1074
ag273
ag105
ag475
ag278
ag101
ag405
ag215
ag476
ag209
ag281
ag879
ag1076
atRp4143
sS'unverricht-lundborg syndrome'
p4144
g3
((lp4145
g629
atRp4146
sS'pupil disorders'
p4147
g3
((lp4148
g621
atRp4149
sS'breast neoplasms'
p4150
g3
((lp4151
g1653
ag811
ag302
ag946
ag963
ag814
ag306
ag200
ag46
ag3221
ag3425
ag812
ag671
ag12
ag198
ag205
ag367
ag299
ag268
ag813
ag303
ag291
ag756
ag369
ag413
ag11
ag301
ag285
ag214
ag308
ag377
ag702
ag1508
ag207
ag1041
ag280
ag533
ag815
ag295
ag208
ag210
ag237
ag1004
ag816
ag211
ag1188
ag372
ag213
ag1116
ag731
ag44
ag375
ag116
ag562
ag14
ag817
ag342
aS'DB08871'
p4152
ag338
ag87
ag241
ag895
ag513
ag90
ag95
ag732
ag206
ag514
ag203
ag901
ag818
ag217
ag310
ag73
ag399
ag1569
ag575
ag312
atRp4153
sS'polycythemia'
p4154
g3
((lp4155
g39
ag45
ag213
ag206
ag30
ag574
ag515
atRp4156
sS'cardiomyopathies'
p4157
g3
((lp4158
g299
ag129
ag44
ag895
ag506
ag130
ag511
ag462
ag463
ag2301
ag144
ag79
ag80
ag683
ag311
ag469
ag665
ag138
ag668
ag367
ag143
atRp4159
sS'adenocarcinoma'
p4160
g3
((lp4161
g302
ag963
ag301
ag306
ag200
ag291
ag310
ag1522
ag338
ag241
ag1004
ag299
ag44
ag2321
ag303
ag727
ag369
ag205
ag25
ag247
ag285
ag206
ag702
ag815
ag295
ag208
ag370
ag307
ag3427
ag237
ag3428
ag114
ag304
ag703
ag214
ag1007
ag816
ag372
ag213
ag373
ag320
ag110
ag731
ag376
ag14
ag342
ag87
ag1008
ag377
ag305
ag1009
ag316
ag95
ag732
ag514
ag308
ag280
ag399
ag218
ag575
ag3222
ag312
atRp4162
sS'endocrine gland neoplasms'
p4163
g3
((lp4164
g307
atRp4165
sS'myotonic disorders'
p4166
g3
((lp4167
g145
atRp4168
sS'endocrine system diseases'
p4169
g3
((lp4170
g1204
ag537
ag16
ag152
ag206
ag511
ag205
ag213
ag154
ag1310
ag40
ag7
ag123
ag530
ag562
ag156
ag17
atRp4171
sS'mucopolysaccharidosis ii'
p4172
g3
((lp4173
g445
atRp4174
sS'protoporphyria, erythropoietic'
p4175
g3
((lp4176
g25
atRp4177
sS'jaundice, chronic idiopathic'
p4178
g3
((lp4179
g631
atRp4180
sS'osteoarthritis, hip'
p4181
g3
((lp4182
g228
ag959
ag237
ag1537
ag445
ag81
ag77
ag437
ag378
atRp4183
sS'stomatitis'
p4184
g3
((lp4185
g302
ag306
ag285
ag291
ag68
ag299
ag51
ag303
ag419
ag2384
ag295
ag1293
ag797
ag241
ag110
ag338
ag341
ag95
ag1296
ag280
ag515
ag103
atRp4186
sS'alagille syndrome'
p4187
g3
((lp4188
g374
ag365
atRp4189
sS'fanconi anemia'
p4190
g3
((lp4191
g950
ag114
ag133
ag95
ag308
ag340
ag131
ag117
atRp4192
sS'vasculitis'
p4193
g3
((lp4194
g94
ag67
ag53
ag303
ag90
ag59
ag435
ag57
ag95
ag249
ag73
ag231
ag125
atRp4195
sS'sexually transmitted diseases, viral'
p4196
g3
((lp4197
g508
atRp4198
sS'candidiasis, chronic mucocutaneous'
p4199
g3
((lp4200
g1190
ag51
ag614
ag531
ag1293
atRp4201
sS'epilepsy, temporal lobe'
p4202
g3
((lp4203
g36
ag629
ag1703
ag728
ag1074
ag630
ag730
ag631
ag1695
ag632
ag244
ag621
ag633
ag250
ag634
ag698
ag729
ag636
ag284
ag637
ag1705
atRp4204
sS'cranial nerve neoplasms'
p4205
g3
((lp4206
g964
ag44
ag295
atRp4207
sS'dermatofibrosarcoma'
p4208
g3
((lp4209
g300
atRp4210
sS'venous thrombosis'
p4211
g3
((lp4212
g644
ag225
ag658
ag660
ag199
ag1260
ag1442
ag494
ag663
ag1261
ag201
ag198
ag290
ag654
ag236
ag2322
ag1449
ag86
ag215
ag1522
ag495
ag561
ag779
ag209
ag557
ag2469
ag2580
atRp4213
sS'melanosis'
p4214
g3
((lp4215
g519
ag475
ag474
ag413
ag567
ag308
ag570
atRp4216
sS'fructose intolerance'
p4217
g3
((lp4218
g38
atRp4219
sS'infratentorial neoplasms'
p4220
g3
((lp4221
g338
ag295
atRp4222
sS'hyperlipoproteinemias'
p4223
g3
((lp4224
g580
ag673
ag650
ag583
ag986
ag579
ag655
ag859
ag581
ag985
ag582
atRp4225
sS'corneal neovascularization'
p4226
g3
((lp4227
g382
ag385
ag352
ag388
atRp4228
sS'blindness'
p4229
g3
((lp4230
g1041
ag382
ag90
ag168
ag602
ag231
ag136
ag267
ag386
ag139
ag141
ag73
ag325
atRp4231
sS'exophthalmos'
p4232
g3
((lp4233
g197
ag73
ag90
ag231
ag604
ag95
ag1395
ag122
ag123
ag157
ag125
atRp4234
sS'pancreatic neoplasms'
p4235
g3
((lp4236
g302
ag301
ag306
ag310
ag671
ag2996
ag299
ag52
ag1093
ag763
ag247
ag398
ag294
ag311
ag1091
ag17
ag307
ag3427
ag237
ag1004
ag304
ag1319
ag44
ag572
ag86
ag87
ag241
ag377
ag732
ag155
ag369
ag308
ag280
atRp4237
sS'histiocytosis, non-langerhans-cell'
p4238
g3
((lp4239
g67
ag338
ag303
ag90
ag293
ag231
ag95
ag292
ag73
ag295
atRp4240
sS'rhinitis'
p4241
g3
((lp4242
g1231
ag226
ag614
ag567
ag1554
ag455
ag3095
ag3096
ag51
ag245
ag2371
ag3707
ag176
ag240
ag265
ag179
ag1558
ag181
ag182
ag603
ag2368
ag184
ag1468
ag878
ag607
atRp4243
sS'fragile x syndrome'
p4244
g3
((lp4245
g320
ag364
ag310
atRp4246
sS'splenic diseases'
p4247
g3
((lp4248
g1190
ag51
ag604
aS'DB01096'
p4249
ag599
atRp4250
sS'adrenocortical hyperfunction'
p4251
g3
((lp4252
g197
ag161
ag152
ag90
ag40
ag213
ag528
ag154
ag292
ag529
ag206
ag530
ag293
ag562
ag533
ag156
ag66
atRp4253
sS'myopia'
p4254
g3
((lp4255
g519
ag387
ag1383
ag2464
ag325
ag877
ag293
ag308
ag2274
ag621
ag521
ag382
ag140
ag292
ag455
ag390
ag636
ag146
ag1957
ag81
atRp4256
sS'cholangitis'
p4257
g3
((lp4258
g274
ag273
ag53
ag105
ag90
ag229
ag358
ag365
ag374
ag1922
ag73
atRp4259
sS'scoliosis'
p4260
g3
((lp4261
g1041
ag774
ag1059
ag777
ag266
ag1069
ag1070
ag779
ag782
ag1150
atRp4262
sS'hyperbilirubinemia, hereditary'
p4263
g3
((lp4264
g3142
ag631
ag859
atRp4265
sS'gram-negative bacterial infections'
p4266
g3
((lp4267
g1916
ag612
ag226
ag54
ag168
ag615
ag43
ag347
ag420
ag617
ag909
ag351
ag55
ag1901
ag271
ag172
ag254
ag1421
ag1929
ag1930
ag274
ag1902
ag178
ag1912
ag63
ag1913
ag1800
ag82
ag69
ag273
ag105
ag101
ag358
ag167
ag619
ag1918
ag623
ag359
ag1922
ag283
atRp4268
sS'rickets'
p4269
g3
((lp4270
g210
ag15
ag7
ag13
ag631
ag11
ag10
ag250
ag698
ag16
ag17
atRp4271
sS'hypertension, pulmonary'
p4272
g3
((lp4273
g404
ag169
aS'DB00939'
p4274
aS'DB06268'
p4275
ag80
ag1497
aS'DB00374'
p4276
ag457
ag130
ag24
ag685
ag673
ag989
ag465
ag686
ag675
ag678
ag668
ag980
ag2552
ag185
ag405
ag3771
ag1037
ag189
ag657
ag1633
atRp4277
sS'epilepsies, partial'
p4278
g3
((lp4279
g628
ag630
ag632
ag227
ag23
ag244
ag1695
ag250
ag1698
ag1699
ag636
ag633
ag1702
ag728
ag1692
ag631
ag1074
ag635
ag1703
ag1704
ag773
ag629
ag1706
ag1705
ag698
ag637
ag634
ag284
atRp4280
sS'osteochondrodysplasias'
p4281
g3
((lp4282
g41
ag16
ag11
atRp4283
sS'bloom syndrome'
p4284
g3
((lp4285
g574
atRp4286
sS'osteopetrosis'
p4287
g3
((lp4288
g11
ag211
ag7
ag12
ag16
ag17
atRp4289
sS'lymphoproliferative disorders'
p4290
g3
((lp4291
g299
ag88
ag53
ag303
ag133
ag59
ag90
ag57
ag95
ag424
ag118
ag822
ag231
ag67
ag733
ag73
ag340
ag52
ag131
ag295
atRp4292
sS'lymphoma, t-cell'
p4293
g3
((lp4294
g299
ag87
ag341
ag340
ag303
ag90
ag2914
ag293
ag1753
ag95
ag292
ag118
ag115
ag67
ag294
ag73
ag110
ag375
ag295
ag338
atRp4295
sS'hypobetalipoproteinemias'
p4296
g3
((lp4297
g326
atRp4298
sS'neuritis'
p4299
g3
((lp4300
g197
ag224
ag914
ag90
ag91
ag253
ag476
ag249
ag278
ag431
ag73
atRp4301
sS'muscular dystrophy, duchenne'
p4302
g3
((lp4303
g258
ag36
ag105
ag90
ag73
ag189
atRp4304
sS'phenylketonurias'
p4305
g3
((lp4306
g1194
ag453
ag648
ag726
ag333
ag597
ag793
ag952
ag538
ag1196
ag476
aS'DB00168'
p4307
ag1548
atRp4308
sS'intestinal diseases'
p4309
g3
((lp4310
g88
ag914
ag763
ag762
ag403
ag38
ag60
ag238
ag81
ag420
atRp4311
sS'histiocytoma, benign fibrous'
p4312
g3
((lp4313
g299
ag87
ag303
ag95
ag398
ag702
ag295
atRp4314
sS'joint diseases'
p4315
g3
((lp4316
g197
ag959
ag44
ag403
ag506
ag1613
ag90
ag235
ag358
ag437
ag292
ag156
ag81
ag231
ag388
ag141
ag73
ag228
ag65
atRp4317
sS'red-cell aplasia, pure'
p4318
g3
((lp4319
g67
ag53
ag90
ag59
ag231
ag57
ag95
ag73
ag340
ag295
atRp4320
sS'neoplasms, neuroepithelial'
p4321
g3
((lp4322
g339
ag730
ag569
ag305
ag398
atRp4323
sS'hypercalcemia'
p4324
g3
((lp4325
g203
ag403
ag5
ag11
ag7
ag8
ag755
ag42
ag202
ag12
ag415
ag19
ag60
ag13
ag62
ag16
ag17
ag18
ag210
ag15
ag211
ag291
ag9
ag10
ag14
ag89
ag90
ag216
ag217
ag73
atRp4326
sS'neisseriaceae infections'
p4327
g3
((lp4328
g909
ag273
ag226
ag105
ag168
ag358
ag255
ag43
ag281
atRp4329
sS'adrenal gland neoplasms'
p4330
g3
((lp4331
g197
ag982
ag984
ag528
ag154
ag2145
ag161
ag538
ag293
ag292
ag398
ag206
ag665
ag781
ag530
ag533
ag17
ag66
ag307
ag3061
ag2214
ag462
ag213
ag156
ag144
ag529
ag1502
ag95
ag454
ag295
ag469
ag539
atRp4332
sS'graves disease'
p4333
g3
((lp4334
g307
ag90
ag231
ag73
ag58
ag1395
ag122
ag123
ag124
ag157
ag144
ag125
atRp4335
sS'lymphangioleiomyomatosis'
p4336
g3
((lp4337
g214
ag200
ag352
ag52
ag562
atRp4338
sS'glucosephosphate dehydrogenase deficiency'
p4339
g3
((lp4340
g224
ag29
ag797
ag246
ag91
ag507
ag136
ag233
ag941
ag249
ag384
ag209
ag201
ag48
atRp4341
sS'aortic diseases'
p4342
g3
((lp4343
g494
ag225
ag15
ag7
ag236
ag42
ag44
ag16
atRp4344
sS'biliary atresia'
p4345
g3
((lp4346
g374
ag67
ag88
ag365
atRp4347
sS'melanoma'
p4348
g3
((lp4349
g648
ag963
ag339
ag200
ag291
ag397
ag568
ag299
ag303
ag538
ag413
ag569
ag398
ag570
ag1006
ag295
ag285
ag114
ag414
ag241
ag110
ag572
ag320
ag377
ag305
ag316
ag95
ag308
ag574
ag399
ag879
ag575
ag312
atRp4350
sS'headache disorders'
p4351
g3
((lp4352
g23
ag403
ag2612
ag633
ag837
ag1499
ag1211
ag636
atRp4353
sS'diarrhea'
p4354
g3
((lp4355
g2684
ag302
ag168
ag1476
ag306
ag600
ag2301
ag1822
ag365
ag1653
ag389
ag226
ag386
ag304
ag1919
ag286
ag909
ag1605
ag245
ag2382
ag2300
ag420
ag57
ag247
ag279
ag2358
ag239
ag229
ag352
ag172
ag272
ag184
ag2585
ag307
ag259
ag1532
ag310
ag246
ag1823
ag1912
ag762
ag59
ag38
aS'DB01421'
p4356
ag76
ag2383
ag374
ag876
aS'DB08874'
p4357
ag572
ag1307
ag69
ag97
ag273
ag278
ag358
ag604
ag732
ag167
ag731
ag238
ag280
ag281
ag282
ag1935
atRp4358
sS'xanthomatosis'
p4359
g3
((lp4360
g365
ag374
ag581
ag986
ag985
ag582
atRp4361
sS'cholecystolithiasis'
p4362
g3
((lp4363
g374
ag365
atRp4364
sS'hoarseness'
p4365
g3
((lp4366
g1823
ag1822
ag141
ag90
atRp4367
sS'heredodegenerative disorders, nervous system'
p4368
g3
((lp4369
g324
atRp4370
sS'optic atrophy'
p4371
g3
((lp4372
g267
ag637
ag90
ag1286
atRp4373
sS'fabry disease'
p4374
g3
((lp4375
g2711
atRp4376
sS'atrial fibrillation'
p4377
g3
((lp4378
g138
ag644
ag215
ag39
ag658
ag660
ag661
ag1331
ag201
ag6
ag141
ag142
ag144
ag1442
ag494
ag495
ag148
ag653
ag470
ag136
ag134
ag250
ag683
ag236
ag672
ag458
ag129
ag130
ag1260
ag132
ag654
ag70
ag1449
ag135
ag549
ag137
ag140
ag79
ag139
ag1447
ag147
ag131
ag37
ag96
ag689
ag98
ag209
ag981
ag678
ag146
ag1504
ag143
atRp4379
sS'female urogenital diseases'
p4380
g3
((lp4381
g168
ag946
atRp4382
sS'hematuria'
p4383
g3
((lp4384
g773
ag494
ag87
ag225
ag53
ag2001
ag252
ag90
ag599
ag201
ag1282
ag95
ag779
ag209
ag73
ag236
ag231
atRp4385
sS'peripheral vascular diseases'
p4386
g3
((lp4387
g404
ag494
ag980
ag382
ag2368
ag646
ag660
ag658
ag46
ag1116
ag44
ag859
ag3103
ag1117
ag463
ag86
ag2371
ag236
ag690
ag741
atRp4388
sS'dermatomycoses'
p4389
g3
((lp4390
g614
ag531
ag51
ag368
ag1265
ag1292
ag1256
ag1266
aS'DB00239'
p4391
ag1293
aS'DB01153'
p4392
ag1294
ag620
aS'DB00735'
p4393
aS'DB04794'
p4394
ag905
ag1295
ag1296
ag1291
aS'DB01007'
p4395
ag124
ag1190
atRp4396
sS'sleep initiation and maintenance disorders'
p4397
g3
((lp4398
g1041
ag2507
ag1496
ag3142
ag597
ag1499
ag1211
ag2508
ag1693
ag2601
ag2118
ag177
ag1061
aS'DB01215'
p4399
ag3143
ag1501
ag1695
ag1986
ag1696
ag2550
ag3651
ag333
ag3144
ag1700
ag3145
ag1991
ag1992
ag262
ag1044
aS'DB00962'
p4400
ag1444
ag1445
ag1074
aS'DB00726'
p4401
ag1149
ag1043
aS'DB01589'
p4402
ag2262
ag2551
ag2256
ag3146
ag1707
ag2254
ag3147
ag3653
ag2553
ag2549
ag1042
ag1996
atRp4403
sS'varicose veins'
p4404
g3
((lp4405
g494
ag1054
ag70
ag236
ag837
ag266
ag235
ag1055
ag2402
atRp4406
sS'leukemia, monocytic, acute'
p4407
g3
((lp4408
g341
ag895
ag303
ag291
ag703
ag704
ag1188
ag90
ag95
ag11
ag413
ag73
ag342
ag295
ag338
ag1187
atRp4409
sS'learning disorders'
p4410
g3
((lp4411
g2275
ag1996
ag1991
ag1992
ag1986
atRp4412
sS'dental enamel hypoplasia'
p4413
g3
((lp4414
g229
ag7
ag16
atRp4415
sS'dyslexia'
p4416
g3
((lp4417
g1986
ag1991
atRp4418
sS'neuroblastoma'
p4419
g3
((lp4420
g338
ag404
ag285
ag291
ag397
ag299
aS'DB00462'
p4421
ag538
ag413
ag398
ag665
ag1970
ag295
ag48
ag304
ag511
ag78
ag372
ag730
ag1069
ag1073
ag87
ag377
ag412
ag1399
ag95
ag97
ag343
ag469
atRp4422
sS'retinal diseases'
p4423
g3
((lp4424
g136
ag490
ag385
ag383
ag31
ag90
ag511
ag637
ag200
ag424
ag267
ag382
ag29
ag387
ag388
ag733
ag73
ag548
ag390
ag231
ag1301
atRp4425
sS'lipodystrophy'
p4426
g3
((lp4427
g1203
ag688
ag277
ag1543
ag1463
ag1467
ag2453
ag1466
ag1478
ag1136
ag508
ag256
ag2457
atRp4428
sS'hereditary angioedema types i and ii'
p4429
g3
((lp4430
g710
ag676
atRp4431
sS'aneuploidy'
p4432
g3
((lp4433
g65
ag1074
ag341
ag338
ag946
ag507
ag600
ag308
ag1291
ag320
ag399
ag702
ag1186
ag1266
ag295
atRp4434
sS'ichthyosis, x-linked'
p4435
g3
((lp4436
g946
atRp4437
sS'hyperlipoproteinemia type v'
p4438
g3
((lp4439
g580
ag581
ag583
ag579
atRp4440
sS'cyanosis'
p4441
g3
((lp4442
g223
ag269
ag236
ag276
ag266
ag249
atRp4443
sS'fibromatosis, aggressive'
p4444
g3
((lp4445
g299
ag300
ag817
ag303
ag200
ag399
atRp4446
sS'pituitary diseases'
p4447
g3
((lp4448
g1204
ag197
ag537
ag152
ag90
ag40
ag213
ag528
ag154
ag292
ag1310
ag206
ag123
ag530
ag971
ag293
ag156
atRp4449
sS'hyperinsulinism'
p4450
g3
((lp4451
g307
ag130
ag688
ag206
ag213
ag502
ag156
ag682
ag1093
ag453
ag2106
ag311
atRp4452
sS'neurofibromatosis 1'
p4453
g3
((lp4454
g44
ag598
atRp4455
sS'amyloidosis'
p4456
g3
((lp4457
g290
ag53
ag726
ag90
ag291
ag65
ag95
ag780
ag737
ag294
ag116
ag73
ag293
ag295
ag292
atRp4458
sS'multiple acyl coenzyme a dehydrogenase deficiency'
p4459
g3
((lp4460
g797
ag463
atRp4461
sS'ichthyosiform erythroderma, congenital'
p4462
g3
((lp4463
g409
atRp4464
sS'budd-chiari syndrome'
p4465
g3
((lp4466
g494
ag236
ag225
ag558
ag398
atRp4467
sS'porphyrias, hepatic'
p4468
g3
((lp4469
g24
ag25
atRp4470
sS'retinal neoplasms'
p4471
g3
((lp4472
g372
ag338
ag285
ag291
ag382
ag295
atRp4473
sS'night blindness'
p4474
g3
((lp4475
g386
ag412
atRp4476
sS'necrosis'
p4477
g3
((lp4478
g138
ag644
ag546
ag231
ag299
ag494
ag44
ag53
ag25
ag326
ag370
ag1091
ag1055
ag130
ag67
ag236
ag631
ag48
ag78
ag266
ag77
ag741
ag105
ag90
ag468
ag73
ag103
atRp4479
sS'thrombosis'
p4480
g3
((lp4481
g644
ag645
ag225
ag670
ag252
ag658
ag474
ag660
ag199
ag1260
ag837
ag235
ag671
ag1442
ag241
ag494
ag52
ag1000
ag646
ag654
ag558
ag663
ag709
ag1261
ag236
ag779
ag550
ag201
ag31
ag647
ag687
ag1446
ag741
ag773
ag980
ag690
ag657
ag215
ag2469
ag495
ag581
ag209
ag574
ag656
ag711
atRp4482
sS'cleft palate'
p4483
g3
((lp4484
g197
ag1074
ag364
ag413
ag1168
ag1306
ag266
ag292
ag156
ag386
ag250
ag388
ag293
ag476
atRp4485
sS'myocardial ischemia'
p4486
g3
((lp4487
g138
ag143
ag774
ag5
ag39
ag658
ag474
ag983
ag661
ag1331
ag46
ag645
ag848
ag162
ag455
ag49
ag655
ag52
ag653
ag470
ag858
ag1168
ag680
ag1497
ag683
ag660
ag684
ag665
ag672
ag652
ag129
ag130
ag685
ag673
ag133
ag134
ag647
ag458
ag463
ag45
ag465
ag686
ag675
ag144
ag44
ag189
ag668
ag131
ag676
ag80
ag495
ag689
ag651
ag468
ag1037
ag469
ag678
ag236
ag690
ag657
ag104
atRp4488
sS'rhinitis, allergic, seasonal'
p4489
g3
((lp4490
g197
ag1552
ag596
ag3703
ag567
ag2973
aS'DB01106'
p4491
aS'DB01620'
p4492
ag1554
ag1555
ag1231
ag1559
ag3096
ag240
ag2371
aS'DB00835'
p4493
ag388
ag2974
aS'DB00405'
p4494
ag231
ag3705
ag176
ag262
ag598
ag1590
ag265
ag1558
ag1560
aS'DB08906'
p4495
ag181
ag182
ag603
ag2368
ag184
ag3707
ag1468
ag97
ag878
ag2434
ag1205
ag607
aS'DB00719'
p4496
atRp4497
sS'hepatitis, viral, human'
p4498
g3
((lp4499
g67
ag53
ag90
ag424
ag365
ag77
ag374
ag510
ag733
ag73
atRp4500
sS'carpal tunnel syndrome'
p4501
g3
((lp4502
g90
ag231
ag275
ag292
ag388
ag141
ag476
atRp4503
sS'liver cirrhosis'
p4504
g3
((lp4505
g546
ag506
ag40
ag432
ag2025
ag365
ag2289
ag510
ag30
ag1612
ag1912
ag3932
ag245
ag53
ag303
ag94
ag60
ag1454
ag511
ag1055
ag599
ag1136
ag201
ag66
ag307
ag959
ag97
ag1595
ag762
ag38
ag75
ag686
ag2369
ag374
ag680
ag44
ag2402
ag572
ag85
ag1498
ag89
ag90
ag1935
ag1093
ag100
ag73
ag144
ag1457
atRp4506
sS'erythromelalgia'
p4507
g3
((lp4508
g23
ag145
atRp4509
sS'gyrate atrophy'
p4510
g3
((lp4511
g490
atRp4512
sS'carbohydrate metabolism, inborn errors'
p4513
g3
((lp4514
g445
atRp4515
sS'dyslipidemias'
p4516
g3
((lp4517
g653
ag580
ag1203
ag688
ag649
ag673
ag860
ag655
ag583
ag857
ag682
ag650
ag859
ag502
ag2933
ag1720
ag579
ag716
ag49
atRp4518
sS'erythema'
p4519
g3
((lp4520
g403
ag240
ag306
ag235
ag1589
ag415
ag299
ag411
ag413
ag25
ag249
ag388
ag591
ag567
ag29
ag31
ag571
ag414
ag449
ag88
ag410
ag90
ag73
ag607
ag117
atRp4521
s.