(dp1
S'hypocalcemia'
p2
c__builtin__
set
p3
((lp4
S'DB00258'
p5
aS'DB00136'
p6
aS'DB06724'
p7
aS'DB01070'
p8
atRp9
sS'porphyria, acute intermittent'
p10
g3
((lp11
S'DB00477'
p12
atRp13
sS'porphyria cutanea tarda'
p14
g3
((lp15
S'DB01611'
p16
atRp17
sS'kidney diseases'
p18
g3
((lp19
S'DB01029'
p20
aS'DB00437'
p21
aS'DB00695'
p22
aS'DB00678'
p23
aS'DB00584'
p24
aS'DB00887'
p25
aS'DB00988'
p26
aS'DB00999'
p27
aS'DB00524'
p28
aS'DB01258'
p29
aS'DB00638'
p30
aS'DB00345'
p31
aS'DB00658'
p32
ag7
aS'DB00275'
p33
atRp34
sS'anemia, megaloblastic'
p35
g3
((lp36
S'DB00158'
p37
aS'DB00650'
p38
atRp39
sS'wolff-parkinson-white syndrome'
p40
g3
((lp41
S'DB00131'
p42
aS'DB00171'
p43
aS'DB00640'
p44
atRp45
sS'mucopolysaccharidosis vi'
p46
g3
((lp47
S'DB01279'
p48
atRp49
sS'hypothyroidism'
p50
g3
((lp51
S'DB00279'
p52
aS'DB00024'
p53
aS'DB01584'
p54
aS'DB00451'
p55
atRp56
sS'pulmonary disease, chronic obstructive'
p57
g3
((lp58
S'DB00983'
p59
aS'DB01222'
p60
aS'DB00860'
p61
aS'DB01656'
p62
aS'DB00332'
p63
aS'DB00938'
p64
aS'DB01001'
p65
aS'DB00635'
p66
aS'DB01274'
p67
aS'DB01409'
p68
atRp69
sS'osteoporosis'
p70
g3
((lp71
S'DB01077'
p72
aS'DB00481'
p73
ag7
aS'DB04574'
p74
aS'DB00286'
p75
aS'DB00153'
p76
aS'DB00884'
p77
aS'DB00630'
p78
aS'DB06285'
p79
ag5
aS'DB00717'
p80
aS'DB06710'
p81
aS'DB00621'
p82
aS'DB00710'
p83
aS'DB00783'
p84
aS'DB00399'
p85
aS'DB00169'
p86
aS'DB00017'
p87
aS'DB06643'
p88
atRp89
sS'drug hypersensitivity'
p90
g3
((lp91
S'DB00253'
p92
atRp93
sS'hypoplastic left heart syndrome'
p94
g3
((lp95
S'DB00770'
p96
atRp97
sS'diabetes mellitus, type 1'
p98
g3
((lp99
S'DB00047'
p100
aS'DB00046'
p101
aS'DB00030'
p102
aS'DB01278'
p103
aS'DB08914'
p104
aS'DB01593'
p105
aS'DB01307'
p106
aS'DB01306'
p107
atRp108
sS'skin diseases, bacterial'
p109
g3
((lp110
S'DB01060'
p111
aS'DB01413'
p112
aS'DB00493'
p113
aS'DB01416'
p114
ag105
aS'DB01165'
p115
aS'DB01212'
p116
aS'DB00994'
p117
aS'DB00833'
p118
aS'DB00626'
p119
aS'DB00359'
p120
aS'DB01137'
p121
aS'DB01330'
p122
aS'DB01331'
p123
aS'DB01332'
p124
aS'DB01333'
p125
aS'DB01150'
p126
aS'DB00634'
p127
aS'DB00567'
p128
aS'DB00601'
p129
aS'DB00607'
p130
aS'DB01294'
p131
aS'DB00671'
p132
aS'DB00415'
p133
aS'DB00798'
p134
aS'DB00535'
p135
aS'DB00537'
p136
aS'DB00438'
p137
aS'DB01329'
p138
aS'DB01327'
p139
aS'DB01326'
p140
atRp141
sS'macular degeneration'
p142
g3
((lp143
S'DB00105'
p144
aS'DB04895'
p145
aS'DB00112'
p146
aS'DB00069'
p147
aS'DB00022'
p148
aS'DB08885'
p149
aS'DB00460'
p150
aS'DB00033'
p151
aS'DB00034'
p152
aS'DB00008'
p153
aS'DB01270'
p154
atRp155
sS'rhabdomyosarcoma'
p156
g3
((lp157
S'DB01181'
p158
aS'DB00773'
p159
aS'DB01042'
p160
aS'DB00531'
p161
aS'DB00970'
p162
aS'DB00851'
p163
aS'DB00541'
p164
atRp165
sS'ductus arteriosus, patent'
p166
g3
((lp167
S'DB01050'
p168
aS'DB00328'
p169
ag96
atRp170
sS'keratosis'
p171
g3
((lp172
S'DB00544'
p173
aS'DB00179'
p174
aS'DB00755'
p175
aS'DB00586'
p176
aS'DB00936'
p177
atRp178
sS'erythema multiforme'
p179
g3
((lp180
S'DB00745'
p181
atRp182
sS'rheumatic diseases'
p183
g3
((lp184
g61
ag66
ag161
aS'DB00620'
p185
aS'DB00741'
p186
atRp187
sS'liver cirrhosis, biliary'
p188
g3
((lp189
S'DB01586'
p190
aS'DB01394'
p191
aS'DB00859'
p192
atRp193
sS'anemia'
p194
g3
((lp195
g37
ag38
aS'DB08826'
p196
aS'DB00126'
p197
aS'DB00165'
p198
aS'DB00012'
p199
aS'DB01262'
p200
aS'DB00007'
p201
aS'DB00016'
p202
atRp203
sS'anemia, macrocytic'
p204
g3
((lp205
g37
atRp206
sS'adrenal cortex neoplasms'
p207
g3
((lp208
S'DB00648'
p209
atRp210
sS'dwarfism, pituitary'
p211
g3
((lp212
S'DB00010'
p213
atRp214
sS'prostatic diseases'
p215
g3
((lp216
S'DB00742'
p217
atRp218
sS'skin neoplasms'
p219
g3
((lp220
g144
ag147
ag148
ag151
ag152
ag153
ag86
atRp221
sS'carcinoma, renal cell'
p222
g3
((lp223
g144
ag146
ag147
ag148
aS'DB01590'
p224
aS'DB00041'
p225
aS'DB06589'
p226
aS'DB01268'
p227
aS'DB00603'
p228
aS'DB06287'
p229
ag151
ag152
ag153
aS'DB01005'
p230
aS'DB00398'
p231
atRp232
sS'pemphigus'
p233
g3
((lp234
S'DB00995'
p235
aS'DB00608'
p236
atRp237
sS'cystic fibrosis'
p238
g3
((lp239
S'DB00355'
p240
aS'DB08820'
p241
aS'DB06151'
p242
aS'DB00003'
p243
aS'DB00594'
p244
atRp245
sS'epilepsies, myoclonic'
p246
g3
((lp247
S'DB00794'
p248
aS'DB01068'
p249
atRp250
sS'myocardial infarction'
p251
g3
((lp252
S'DB06779'
p253
aS'DB00775'
p254
aS'DB00086'
p255
aS'DB06209'
p256
ag23
aS'DB00975'
p257
aS'DB00758'
p258
aS'DB00612'
p259
aS'DB00063'
p260
aS'DB01432'
p261
aS'DB00598'
p262
aS'DB00281'
p263
aS'DB00280'
p264
aS'DB00722'
p265
aS'DB00381'
p266
aS'DB00682'
p267
aS'DB01359'
p268
aS'DB01098'
p269
aS'DB01197'
p270
aS'DB01095'
p271
ag84
aS'DB00700'
p272
aS'DB00373'
p273
aS'DB00031'
p274
aS'DB00627'
p275
aS'DB01136'
p276
aS'DB00375'
p277
aS'DB00013'
p278
aS'DB01138'
p279
aS'DB00187'
p280
aS'DB00335'
p281
ag7
aS'DB00015'
p282
aS'DB00661'
p283
aS'DB01076'
p284
aS'DB00945'
p285
aS'DB00641'
p286
aS'DB08816'
p287
aS'DB00960'
p288
aS'DB00966'
p289
aS'DB00727'
p290
aS'DB00295'
p291
aS'DB01193'
p292
aS'DB01109'
p293
aS'DB00264'
p294
aS'DB01125'
p295
aS'DB01203'
p296
aS'DB00519'
p297
ag26
aS'DB01225'
p298
aS'DB00175'
p299
aS'DB00177'
p300
aS'DB00009'
p301
aS'DB00571'
p302
aS'DB00343'
p303
aS'DB00029'
p304
aS'DB00178'
p305
atRp306
sS'hemolytic-uremic syndrome'
p307
g3
((lp308
S'DB01257'
p309
atRp310
sS'essential tremor'
p311
g3
((lp312
g302
atRp313
sS'testicular neoplasms'
p314
g3
((lp315
S'DB00997'
p316
ag158
ag159
aS'DB00563'
p317
aS'DB00515'
p318
ag161
ag162
aS'DB00290'
p319
aS'DB00291'
p320
aS'DB00570'
p321
atRp322
sS'ventricular fibrillation'
p323
g3
((lp324
S'DB01118'
p325
aS'DB01064'
p326
aS'DB00680'
p327
aS'DB00653'
p328
aS'DB00067'
p329
aS'DB00668'
p330
ag281
aS'DB01158'
p331
aS'DB00489'
p332
ag292
ag263
aS'DB00974'
p333
ag302
ag294
aS'DB00379'
p334
ag280
atRp335
sS'encephalitis, herpes simplex'
p336
g3
((lp337
S'DB00787'
p338
atRp339
sS'familial mediterranean fever'
p340
g3
((lp341
g191
atRp342
sS'diabetic nephropathies'
p343
g3
((lp344
g20
aS'DB00691'
p345
aS'DB00876'
p346
ag289
ag23
ag270
aS'DB00492'
p347
ag297
aS'DB00796'
p348
aS'DB00881'
p349
aS'DB00790'
p350
ag300
ag24
ag265
ag305
aS'DB00542'
p351
ag33
atRp352
sS'bone diseases'
p353
g3
((lp354
S'DB00746'
p355
ag85
ag78
aS'DB00282'
p356
ag6
atRp357
sS'severe combined immunodeficiency'
p358
g3
((lp359
S'DB00061'
p360
atRp361
sS'tobacco use disorder'
p362
g3
((lp363
S'DB00184'
p364
aS'DB00215'
p365
aS'DB01156'
p366
atRp367
sS'celiac disease'
p368
g3
((lp369
S'DB00200'
p370
atRp371
sS'crohn disease'
p372
g3
((lp373
S'DB00993'
p374
ag317
ag61
aS'DB01033'
p375
ag60
aS'DB00065'
p376
aS'DB00108'
p377
aS'DB08904'
p378
aS'DB00795'
p379
aS'DB00233'
p380
aS'DB00051'
p381
ag86
atRp382
sS'acidosis'
p383
g3
((lp384
S'DB01213'
p385
aS'DB01390'
p386
ag244
atRp387
sS'conjunctivitis'
p388
g3
((lp389
S'DB00218'
p390
aS'DB00873'
p391
ag136
ag61
aS'DB00826'
p392
aS'DB01003'
p393
ag127
ag115
aS'DB00935'
p394
aS'DB01044'
p395
atRp396
sS'myoclonic epilepsy, juvenile'
p397
g3
((lp398
g248
aS'DB00313'
p399
atRp400
sS'granulomatous disease, chronic'
p401
g3
((lp402
g151
atRp403
sS'meningococcal infections'
p404
g3
((lp405
S'DB01053'
p406
aS'DB01045'
p407
aS'DB01017'
p408
ag133
atRp409
sS'hyperlipoproteinemia type iii'
p410
g3
((lp411
g284
atRp412
sS'tic disorders'
p413
g3
((lp414
S'DB00502'
p415
aS'DB01100'
p416
ag249
atRp417
sS'vitiligo'
p418
g3
((lp419
S'DB00553'
p420
aS'DB00600'
p421
aS'DB04571'
p422
atRp423
sS'mucopolysaccharidoses'
p424
g3
((lp425
g48
aS'DB01271'
p426
aS'DB00090'
p427
atRp428
sS'meningeal neoplasms'
p429
g3
((lp430
S'DB00987'
p431
aS'DB00834'
p432
atRp433
sS'arthritis, psoriatic'
p434
g3
((lp435
g235
ag317
ag376
aS'DB06674'
p436
ag381
aS'DB00005'
p437
atRp438
sS'coronary disease'
p439
g3
((lp440
g284
ag254
aS'DB01020'
p441
ag260
aS'DB01039'
p442
ag350
aS'DB00883'
p443
aS'DB00227'
p444
ag84
ag279
atRp445
sS'neural tube defects'
p446
g3
((lp447
g37
atRp448
sS'intestinal neoplasms'
p449
g3
((lp450
S'DB00104'
p451
atRp452
sS'lung neoplasms'
p453
g3
((lp454
g316
ag318
ag158
aS'DB01229'
p455
ag159
ag317
aS'DB01206'
p456
aS'DB00444'
p457
aS'DB00958'
p458
ag161
aS'DB00317'
p459
aS'DB01168'
p460
ag321
ag86
aS'DB00262'
p461
atRp462
sS'diabetes insipidus, nephrogenic'
p463
g3
((lp464
S'DB00035'
p465
atRp466
sS'ichthyosis vulgaris'
p467
g3
((lp468
S'DB06768'
p469
atRp470
sS'respiratory insufficiency'
p471
g3
((lp472
S'DB00561'
p473
atRp474
sS'cataract'
p475
g3
((lp476
S'DB00963'
p477
atRp478
sS'pancreatitis'
p479
g3
((lp480
g451
aS'DB00782'
p481
aS'DB00424'
p482
atRp483
sS'angioedemas, hereditary'
p484
g3
((lp485
S'DB01406'
p486
aS'DB06196'
p487
atRp488
sS'headache disorders'
p489
g3
((lp490
S'DB01104'
p491
atRp492
sS'leukemia, lymphoid'
p493
g3
((lp494
g457
aS'DB00087'
p495
atRp496
sS'cerebral palsy'
p497
g3
((lp498
S'DB01219'
p499
aS'DB00181'
p500
atRp501
sS'arterial occlusive diseases'
p502
g3
((lp503
g255
ag301
aS'DB01113'
p504
atRp505
sS'lupus erythematosus, systemic'
p506
g3
((lp507
S'DB00091'
p508
ag374
ag16
ag61
aS'DB00959'
p509
ag185
ag66
atRp510
sS'gastrointestinal stromal tumors'
p511
g3
((lp512
S'DB00619'
p513
ag227
atRp514
sS'leukemia, myeloid, acute'
p515
g3
((lp516
g316
aS'DB00023'
p517
ag431
ag159
aS'DB01169'
p518
aS'DB01177'
p519
ag161
aS'DB00056'
p520
aS'DB00020'
p521
aS'DB00694'
p522
aS'DB01204'
p523
aS'DB00352'
p524
atRp525
sS'cushing syndrome'
p526
g3
((lp527
S'DB01234'
p528
aS'DB00357'
p529
aS'DB01011'
p530
aS'DB01026'
p531
ag209
atRp532
sS'malignant hyperthermia'
p533
g3
((lp534
g499
aS'DB01159'
p535
atRp536
sS'psoriasis'
p537
g3
((lp538
S'DB00092'
p539
ag422
ag6
ag376
aS'DB01024'
p540
aS'DB02300'
p541
ag177
ag317
aS'DB00688'
p542
aS'DB00443'
p543
aS'DB01013'
p544
ag381
ag86
aS'DB00591'
p545
ag524
aS'DB00764'
p546
ag508
aS'DB00095'
p547
ag186
aS'DB00394'
p548
aS'DB00459'
p549
aS'DB00799'
p550
ag61
ag230
ag437
ag420
atRp551
sS'phosphorus metabolism disorders'
p552
g3
((lp553
g32
atRp554
sS'fibrosarcoma'
p555
g3
((lp556
g163
atRp557
sS'autoimmune diseases'
p558
g3
((lp559
g225
ag509
ag381
ag66
ag437
ag376
atRp560
sS'atrial fibrillation'
p561
g3
((lp562
g293
aS'DB06228'
p563
ag264
aS'DB06695'
p564
ag267
aS'DB01195'
p565
ag332
ag283
aS'DB00204'
p566
ag44
aS'DB01396'
p567
ag281
aS'DB01035'
p568
aS'DB01078'
p569
aS'DB00390'
p570
aS'DB00908'
p571
aS'DB04855'
p572
aS'DB01182'
p573
ag303
ag295
ag294
aS'DB00308'
p574
atRp575
sS'thyroid neoplasms'
p576
g3
((lp577
g316
ag144
ag55
ag52
ag54
ag53
atRp578
sS'polycythemia vera'
p579
g3
((lp580
g144
aS'DB00888'
p581
ag230
aS'DB01008'
p582
aS'DB08877'
p583
aS'DB00261'
p584
atRp585
sS'thrombocytosis'
p586
g3
((lp587
g584
ag320
atRp588
sS'mycoses'
p589
g3
((lp590
S'DB00681'
p591
aS'DB01263'
p592
aS'DB01167'
p593
aS'DB00520'
p594
ag392
ag531
aS'DB00251'
p595
aS'DB00196'
p596
aS'DB00400'
p597
aS'DB00582'
p598
atRp599
sS'pregnancy complications'
p600
g3
((lp601
S'DB00028'
p602
atRp603
sS'hyperlipoproteinemia type iv'
p604
g3
((lp605
g442
aS'DB01241'
p606
ag286
atRp607
sS'skin diseases'
p608
g3
((lp609
S'DB01047'
p610
aS'DB00223'
p611
aS'DB00596'
p612
ag541
aS'DB00916'
p613
aS'DB00288'
p614
aS'DB00838'
p615
aS'DB00523'
p616
aS'DB00781'
p617
ag543
aS'DB01130'
p618
aS'DB00254'
p619
ag185
ag544
aS'DB00548'
p620
aS'DB00547'
p621
aS'DB00337'
p622
ag186
ag177
aS'DB01260'
p623
aS'DB00846'
p624
ag61
aS'DB00825'
p625
aS'DB00240'
p626
ag127
ag66
aS'DB00557'
p627
atRp628
sS'primary myelofibrosis'
p629
g3
((lp630
g582
atRp631
sS'alkaptonuria'
p632
g3
((lp633
S'DB00348'
p634
atRp635
sS'anemia, hemolytic, autoimmune'
p636
g3
((lp637
g161
atRp638
sS'hyperlipoproteinemia type ii'
p639
g3
((lp640
g284
ag286
aS'DB00973'
p641
atRp642
sS'carcinoma in situ'
p643
g3
((lp644
S'DB00385'
p645
atRp646
sS'paralysis'
p647
g3
((lp648
S'DB01115'
p649
atRp650
sS'osteosarcoma'
p651
g3
((lp652
g316
ag158
ag317
ag318
ag458
ag161
atRp653
sS'osteogenesis imperfecta'
p654
g3
((lp655
g87
atRp656
sS'keratitis'
p657
g3
((lp658
S'DB00809'
p659
ag392
ag391
atRp660
sS'stroke'
p661
g3
((lp662
g284
ag256
ag269
ag23
ag267
ag258
ag499
aS'DB00208'
p663
ag289
ag286
ag305
ag299
aS'DB00806'
p664
ag287
ag84
ag285
ag564
ag500
ag266
atRp665
sS'hepatitis b'
p666
g3
((lp667
S'DB01265'
p668
aS'DB00442'
p669
aS'DB00709'
p670
aS'DB00300'
p671
ag602
aS'DB00718'
p672
atRp673
sS'hepatitis c'
p674
g3
((lp675
S'DB00811'
p676
aS'DB05521'
p677
ag153
ag147
atRp678
sS'hiv infections'
p679
g3
((lp680
S'DB00738'
p681
aS'DB01601'
p682
aS'DB01048'
p683
ag225
aS'DB00220'
p684
aS'DB00495'
p685
aS'DB00615'
p686
ag338
ag671
aS'DB08864'
p687
ag316
aS'DB01211'
p688
aS'DB00503'
p689
aS'DB00879'
p690
aS'DB01232'
p691
aS'DB00625'
p692
aS'DB00701'
p693
aS'DB00705'
p694
ag670
aS'DB00351'
p695
aS'DB00238'
p696
aS'DB00943'
p697
aS'DB01072'
p698
aS'DB00099'
p699
aS'DB00109'
p700
aS'DB00649'
p701
aS'DB00224'
p702
aS'DB00900'
p703
aS'DB04835'
p704
aS'DB01264'
p705
aS'DB00932'
p706
ag153
aS'DB01004'
p707
ag596
ag602
atRp708
sS'arrhythmias, cardiac'
p709
g3
((lp710
g326
ag325
ag566
ag244
ag263
ag264
ag327
ag565
aS'DB01056'
p711
ag334
ag283
ag44
ag332
ag504
ag568
ag570
ag292
ag571
ag572
ag573
ag302
ag303
ag574
atRp712
sS'head and neck neoplasms'
p713
g3
((lp714
g173
ag321
aS'DB01085'
p715
aS'DB01248'
p716
ag230
atRp717
sS'herpesviridae infections'
p718
g3
((lp719
S'DB00426'
p720
aS'DB00299'
p721
ag338
atRp722
sS'adrenal hyperplasia, congenital'
p723
g3
((lp724
g528
ag61
ag66
aS'DB00687'
p725
ag186
atRp726
sS'addison disease'
p727
g3
((lp728
S'DB01284'
p729
ag61
ag725
ag528
ag186
atRp730
sS'photosensitivity disorders'
p731
g3
((lp732
S'DB00162'
p733
ag16
atRp734
sS'chorea'
p735
g3
((lp736
S'DB00417'
p737
aS'DB04844'
p738
atRp739
sS'hypersensitivity'
p740
g3
((lp741
S'DB00956'
p742
ag168
aS'DB00920'
p743
ag509
aS'DB01069'
p744
aS'DB00283'
p745
aS'DB00388'
p746
ag394
aS'DB00874'
p747
aS'DB00667'
p748
ag528
aS'DB00852'
p749
aS'DB00835'
p750
ag185
aS'DB00318'
p751
aS'DB01075'
p752
aS'DB00748'
p753
ag330
ag61
aS'DB01114'
p754
aS'DB00967'
p755
ag186
aS'DB00434'
p756
aS'DB00316'
p757
aS'DB00512'
p758
aS'DB01364'
p759
ag60
aS'DB00514'
p760
aS'DB00455'
p761
ag393
aS'DB00716'
p762
ag66
ag627
aS'DB00341'
p763
aS'DB01190'
p764
atRp765
sS'hemophilia a'
p766
g3
((lp767
g465
atRp768
sS'dermatitis, atopic'
p769
g3
((lp770
S'DB00864'
p771
aS'DB01142'
p772
ag623
ag622
ag545
ag543
ag186
aS'DB00427'
p773
aS'DB01246'
p774
aS'DB00902'
p775
atRp776
sS'kidney neoplasms'
p777
g3
((lp778
g321
ag456
atRp779
sS'arthritis'
p780
g3
((lp781
g169
ag742
aS'DB01281'
p782
ag509
aS'DB00201'
p783
aS'DB00939'
p784
aS'DB00482'
p785
aS'DB00814'
p786
aS'DB00500'
p787
aS'DB08797'
p788
aS'DB00991'
p789
ag528
aS'DB01399'
p790
ag185
ag376
ag168
ag508
ag285
ag16
aS'DB00749'
p791
aS'DB01397'
p792
ag66
aS'DB00461'
p793
ag176
ag186
aS'DB00605'
p794
ag757
aS'DB01009'
p795
aS'DB00861'
p796
ag379
ag625
aS'DB00788'
p797
aS'DB00712'
p798
ag437
aS'DB00573'
p799
aS'DB00554'
p800
atRp801
sS'leukemia'
p802
g3
((lp803
g316
ag513
aS'DB00762'
p804
ag431
ag159
ag317
aS'DB00982'
p805
aS'DB01280'
p806
ag519
ag161
ag520
ag375
ag524
ag522
ag518
ag175
aS'DB00049'
p807
aS'DB01254'
p808
ag523
ag164
ag581
atRp809
sS'adrenal insufficiency'
p810
g3
((lp811
S'DB01380'
p812
ag61
ag528
ag729
ag186
ag185
ag66
atRp813
sS'hypercalcemia'
p814
g3
((lp815
g72
ag61
ag333
aS'DB05260'
p816
ag66
ag356
aS'DB01012'
p817
ag85
ag87
atRp818
sS'primary ovarian insufficiency'
p819
g3
((lp820
S'DB00655'
p821
ag75
ag74
ag84
atRp822
sS'heart arrest'
p823
g3
((lp824
g330
aS'DB00572'
p825
aS'DB01164'
p826
ag386
atRp827
sS'epilepsy'
p828
g3
((lp829
S'DB00776'
p830
aS'DB00564'
p831
aS'DB00949'
p832
aS'DB00996'
p833
aS'DB06201'
p834
aS'DB01080'
p835
ag249
aS'DB00829'
p836
aS'DB01202'
p837
aS'DB00230'
p838
ag248
aS'DB00273'
p839
aS'DB00555'
p840
aS'DB00819'
p841
ag399
aS'DB01320'
p842
atRp843
sS'leukemia, myeloid, chronic-phase'
p844
g3
((lp845
g513
atRp846
sS'hypopigmentation'
p847
g3
((lp848
g421
atRp849
sS'diabetes mellitus'
p850
g3
((lp851
g20
aS'DB01067'
p852
ag23
aS'DB00731'
p853
aS'DB00222'
p854
aS'DB00672'
p855
ag100
aS'DB00491'
p856
aS'DB00284'
p857
aS'DB06335'
p858
aS'DB00917'
p859
aS'DB00930'
p860
aS'DB00912'
p861
aS'DB00839'
p862
ag269
aS'DB01132'
p863
ag103
ag275
aS'DB01016'
p864
ag465
ag29
aS'DB01276'
p865
ag284
ag286
ag289
aS'DB00331'
p866
ag101
aS'DB01200'
p867
aS'DB00412'
p868
aS'DB01261'
p869
aS'DB01083'
p870
ag300
aS'DB01120'
p871
ag33
ag106
ag107
atRp872
sS'bone diseases, metabolic'
p873
g3
((lp874
S'DB00146'
p875
atRp876
sS'lymphoma, t-cell, cutaneous'
p877
g3
((lp878
g495
ag317
ag161
aS'DB00307'
p879
aS'DB02546'
p880
aS'DB00004'
p881
atRp882
sS'anemia, iron-deficiency'
p883
g3
((lp884
S'DB01592'
p885
atRp886
sS'metabolism, inborn errors'
p887
g3
((lp888
S'DB00121'
p889
atRp890
sS'leukemia, myelomonocytic, chronic'
p891
g3
((lp892
g200
atRp893
sS'dwarfism'
p894
g3
((lp895
S'DB00052'
p896
atRp897
sS'esophageal neoplasms'
p898
g3
((lp899
g458
ag317
ag318
aS'DB00707'
p900
atRp901
sS'atherosclerosis'
p902
g3
((lp903
g269
ag286
ag271
ag258
ag261
ag641
ag299
ag275
ag444
ag277
ag860
atRp904
sS'hemochromatosis'
p905
g3
((lp906
g355
atRp907
sS'paraplegia'
p908
g3
((lp909
g836
atRp910
sS'lymphoma, mantle-cell'
p911
g3
((lp912
S'DB00188'
p913
atRp914
sS'adrenal cortex diseases'
p915
g3
((lp916
g729
aS'DB01285'
p917
atRp918
sS'gonadal dysgenesis'
p919
g3
((lp920
g896
atRp921
sS'epstein-barr virus infections'
p922
g3
((lp923
g721
ag338
atRp924
sS'mucocutaneous lymph node syndrome'
p925
g3
((lp926
g285
atRp927
sS'bacterial infections'
p928
g3
((lp929
S'DB00618'
p930
ag117
ag390
aS'DB00684'
p931
aS'DB00759'
p932
aS'DB01172'
p933
ag186
aS'DB01597'
p934
ag151
ag619
ag121
ag126
atRp935
sS'albinism'
p936
g3
((lp937
g422
atRp938
sS'myeloproliferative disorders'
p939
g3
((lp940
g584
ag230
atRp941
sS'mucopolysaccharidosis ii'
p942
g3
((lp943
g426
atRp944
sS'anemia, sickle cell'
p945
g3
((lp946
g664
ag230
atRp947
sS'wilms tumor'
p948
g3
((lp949
g164
ag162
atRp950
sS'hyperbilirubinemia'
p951
g3
((lp952
S'DB01174'
p953
atRp954
sS'heart failure'
p955
g3
((lp956
S'DB00774'
p957
ag347
ag244
ag24
ag28
aS'DB00872'
p958
ag270
ag27
ag272
aS'DB00235'
p959
ag276
ag265
aS'DB00421'
p960
aS'DB06212'
p961
aS'DB00310'
p962
ag25
aS'DB01427'
p963
ag349
aS'DB00880'
p964
ag290
ag570
aS'DB04899'
p965
aS'DB00841'
p966
ag22
ag297
ag348
ag350
ag294
ag305
atRp967
sS'erythroblastosis, fetal'
p968
g3
((lp969
g602
atRp970
sS'acquired immunodeficiency syndrome'
p971
g3
((lp972
g682
ag683
ag684
ag685
ag686
ag316
ag689
ag338
ag691
ag692
ag693
ag694
ag670
ag695
ag696
ag697
ag671
aS'DB01610'
p973
ag700
ag701
ag702
ag703
ag707
atRp974
sS'colonic neoplasms'
p975
g3
((lp976
g173
aS'DB00848'
p977
ag804
ag456
ag461
atRp978
sS'bartter syndrome'
p979
g3
((lp980
g24
ag270
atRp981
sS'leukemia, myelogenous, chronic, bcr-abl positive'
p982
g3
((lp983
g513
ag431
ag144
ag519
ag161
ag230
ag582
ag808
ag524
atRp984
sS'acidosis, renal tubular'
p985
g3
((lp986
g386
atRp987
sS'nephrotic syndrome'
p988
g3
((lp989
g957
aS'DB00562'
p990
ag22
ag61
aS'DB00214'
p991
aS'DB01021'
p992
ag25
ag66
ag161
ag964
ag27
aS'DB00606'
p993
aS'DB00808'
p994
aS'DB00232'
p995
ag28
ag962
aS'DB01325'
p996
aS'DB01324'
p997
aS'DB00436'
p998
aS'DB00903'
p999
atRp1000
sS'glycogen storage disease type ii'
p1001
g3
((lp1002
S'DB01272'
p1003
atRp1004
sS'parkinsonian disorders'
p1005
g3
((lp1006
g752
ag482
aS'DB01235'
p1007
aS'DB00268'
p1008
aS'DB00810'
p1009
aS'DB00376'
p1010
aS'DB00245'
p1011
aS'DB00387'
p1012
aS'DB00915'
p1013
ag825
aS'DB00190'
p1014
atRp1015
sS'lipodystrophy'
p1016
g3
((lp1017
S'DB08869'
p1018
atRp1019
sS'obesity'
p1020
g3
((lp1021
S'DB00472'
p1022
aS'DB00830'
p1023
ag870
aS'DB00865'
p1024
aS'DB00579'
p1025
aS'DB01579'
p1026
aS'DB00937'
p1027
aS'DB01577'
p1028
aS'DB00191'
p1029
atRp1030
sS'central nervous system neoplasms'
p1031
g3
((lp1032
g458
atRp1033
sS'hyperaldosteronism'
p1034
g3
((lp1035
g960
atRp1036
sS'acth-secreting pituitary adenoma'
p1037
g3
((lp1038
S'DB00248'
p1039
atRp1040
sS'ovarian neoplasms'
p1041
g3
((lp1042
g316
ag158
aS'DB01030'
p1043
ag318
ag160
ag458
ag161
aS'DB01357'
p1044
aS'DB00488'
p1045
aS'DB00361'
p1046
ag455
ag716
ag320
ag230
ag201
atRp1047
sS'uterine neoplasms'
p1048
g3
((lp1049
g316
ag859
ag159
ag162
ag230
atRp1050
sS'leukemia, eosinophilic, acute'
p1051
g3
((lp1052
g524
atRp1053
sS'carcinoma, non-small-cell lung'
p1054
g3
((lp1055
g455
aS'DB01143'
p1056
aS'DB00642'
p1057
ag804
ag1043
aS'DB00441'
p1058
aS'DB00530'
p1059
ag459
ag1046
ag716
ag900
ag230
ag321
ag159
ag146
atRp1060
sS'pulmonary valve stenosis'
p1061
g3
((lp1062
g96
atRp1063
sS'seizures'
p1064
g3
((lp1065
g830
aS'DB00754'
p1066
aS'DB05246'
p1067
ag328
aS'DB00593'
p1068
ag834
aS'DB06218'
p1069
ag841
ag833
ag831
aS'DB01351'
p1070
aS'DB00252'
p1071
ag838
ag832
ag839
ag399
ag366
aS'DB00628'
p1072
ag249
ag953
ag198
ag837
aS'DB00147'
p1073
aS'DB00909'
p1074
aS'DB00292'
p1075
aS'DB00906'
p1076
ag836
ag248
ag835
aS'DB00532'
p1077
aS'DB00349'
p1078
ag840
ag842
atRp1079
sS'alzheimer disease'
p1080
g3
((lp1081
S'DB00843'
p1082
ag399
aS'DB01037'
p1083
aS'DB01043'
p1084
aS'DB00989'
p1085
aS'DB00163'
p1086
aS'DB00382'
p1087
aS'DB00674'
p1088
atRp1089
sS'hemorrhagic fevers, viral'
p1090
g3
((lp1091
g676
atRp1092
sS'carcinoma, hepatocellular'
p1093
g3
((lp1094
g144
ag147
ag148
ag151
ag152
ag153
ag231
atRp1095
sS'protozoan infections'
p1096
g3
((lp1097
S'DB00911'
p1098
atRp1099
sS'polycystic ovary syndrome'
p1100
g3
((lp1101
S'DB00094'
p1102
aS'DB00882'
p1103
atRp1104
sS'goiter'
p1105
g3
((lp1106
g55
aS'DB00763'
p1107
ag52
ag54
aS'DB00550'
p1108
atRp1109
sS'alopecia'
p1110
g3
((lp1111
g889
aS'DB01216'
p1112
aS'DB00350'
p1113
atRp1114
sS'carcinoid tumor'
p1115
g3
((lp1116
S'DB00428'
p1117
atRp1118
sS'hypertriglyceridemia'
p1119
g3
((lp1120
g284
ag442
ag269
ag286
ag271
ag261
ag444
ag299
ag277
ag860
ag606
atRp1121
sS'pituitary neoplasms'
p1122
g3
((lp1123
g451
ag1039
ag896
atRp1124
sS'gastroenteritis'
p1125
g3
((lp1126
S'DB00662'
p1127
aS'DB00836'
p1128
aS'DB00199'
p1129
atRp1130
sS'colitis'
p1131
g3
((lp1132
g758
aS'DB00771'
p1133
ag379
ag528
ag509
ag186
aS'DB01014'
p1134
ag185
aS'DB00244'
p1135
atRp1136
sS'hematologic diseases'
p1137
g3
((lp1138
g293
ag61
ag528
ag509
ag230
ag66
atRp1139
sS'purpura'
p1140
g3
((lp1141
S'DB01240'
p1142
atRp1143
sS'colonic diseases'
p1144
g3
((lp1145
S'DB00747'
p1146
atRp1147
sS'urinary bladder neoplasms'
p1148
g3
((lp1149
g316
ag159
ag318
aS'DB04572'
p1150
ag458
aS'DB00305'
p1151
ag645
atRp1152
sS'bronchial neoplasms'
p1153
g3
((lp1154
g900
atRp1155
sS'rectal diseases'
p1156
g3
((lp1157
g186
atRp1158
sS'purpura, thrombocytopenic'
p1159
g3
((lp1160
g144
atRp1161
sS'myositis'
p1162
g3
((lp1163
S'DB00660'
p1164
aS'DB00924'
p1165
ag285
aS'DB00697'
p1166
aS'DB00856'
p1167
aS'DB01173'
p1168
aS'DB00395'
p1169
aS'DB00356'
p1170
aS'DB00423'
p1171
atRp1172
sS'burkitt lymphoma'
p1173
g3
((lp1174
g161
atRp1175
sS'hemangioma'
p1176
g3
((lp1177
g144
ag147
ag148
ag151
ag152
ag153
atRp1178
sS'hepatitis c, chronic'
p1179
g3
((lp1180
g144
ag147
ag677
ag151
ag148
ag676
ag152
ag153
atRp1181
sS'dementia'
p1182
g3
((lp1183
g1082
ag365
ag1085
aS'DB01224'
p1184
aS'DB00734'
p1185
ag75
ag84
aS'DB00433'
p1186
atRp1187
sS'leukemia, neutrophilic, chronic'
p1188
g3
((lp1189
g524
atRp1190
sS'vitamin e deficiency'
p1191
g3
((lp1192
g1086
ag6
atRp1193
sS'anemia, aplastic'
p1194
g3
((lp1195
g832
atRp1196
sS'liver diseases'
p1197
g3
((lp1198
g991
aS'DB00581'
p1199
aS'DB01220'
p1200
aS'DB00088'
p1201
ag669
ag275
ag676
aS'DB00053'
p1202
aS'DB00021'
p1203
ag960
atRp1204
sS'retinoblastoma'
p1205
g3
((lp1206
g458
ag161
ag162
atRp1207
sS'thromboembolism'
p1208
g3
((lp1209
g253
ag267
ag293
aS'DB00266'
p1210
aS'DB00946'
p1211
ag663
ag257
ag563
ag298
ag295
aS'DB00278'
p1212
aS'DB06822'
p1213
ag504
aS'DB00006'
p1214
aS'DB00001'
p1215
atRp1216
sS'endometrial neoplasms'
p1217
g3
((lp1218
g228
ag695
ag201
ag458
ag161
atRp1219
sS'cystinuria'
p1220
g3
((lp1221
S'DB00847'
p1222
ag192
atRp1223
sS'neuroendocrine tumors'
p1224
g3
((lp1225
g451
ag227
atRp1226
sS'adrenogenital syndrome'
p1227
g3
((lp1228
g725
atRp1229
sS'adenomatous polyposis coli'
p1230
g3
((lp1231
g785
ag794
atRp1232
sS'hypoprothrombinemias'
p1233
g3
((lp1234
S'DB01022'
p1235
atRp1236
sS'seizures, febrile'
p1237
g3
((lp1238
g953
atRp1239
sS'colitis, ulcerative'
p1240
g3
((lp1241
g374
ag1134
ag375
ag376
ag66
ag186
ag379
ag185
ag1135
ag364
ag61
aS'DB01250'
p1242
atRp1243
sS'coronary artery disease'
p1244
g3
((lp1245
g284
ag442
ag286
ag271
aS'DB00509'
p1246
ag261
ag444
aS'DB01599'
p1247
ag299
ag277
ag860
ag606
atRp1248
sS'leukemia, promyelocytic, acute'
p1249
g3
((lp1250
g518
ag175
atRp1251
sS'hyperthyroidism'
p1252
g3
((lp1253
g1107
ag55
ag52
aS'DB06715'
p1254
ag302
ag1108
atRp1255
sS'disease'
p1256
g3
((lp1257
g37
ag146
ag23
aS'DB00675'
p1258
ag1201
ag444
ag491
ag316
ag267
ag688
ag565
ag84
aS'DB01356'
p1259
ag197
ag275
ag1202
ag747
ag508
ag285
ag286
ag228
ag399
ag377
ag880
ag379
ag161
ag879
aS'DB00246'
p1260
ag66
ag571
ag672
atRp1261
sS'lymphoma, follicular'
p1262
g3
((lp1263
g144
aS'DB00081'
p1264
ag161
ag320
aS'DB00073'
p1265
atRp1266
sS'myasthenia gravis'
p1267
g3
((lp1268
S'DB00545'
p1269
ag508
ag161
aS'DB01010'
p1270
aS'DB01400'
p1271
atRp1272
sS'tourette syndrome'
p1273
g3
((lp1274
g415
ag416
aS'DB00334'
p1275
aS'DB00850'
p1276
ag1185
aS'DB00657'
p1277
ag1260
aS'DB00575'
p1278
atRp1279
sS'migraine disorders'
p1280
g3
((lp1281
S'DB00953'
p1282
aS'DB00952'
p1283
aS'DB00320'
p1284
aS'DB00321'
p1285
ag783
aS'DB00918'
p1286
aS'DB01233'
p1287
aS'DB00998'
p1288
ag273
aS'DB06706'
p1289
ag839
aS'DB00216'
p1290
ag285
aS'DB00669'
p1291
ag399
aS'DB00315'
p1292
ag757
ag302
ag296
aS'DB00696'
p1293
ag756
ag294
atRp1294
sS'sezary syndrome'
p1295
g3
((lp1296
g144
ag147
ag148
ag151
ag152
ag153
atRp1297
sS'gastrointestinal neoplasms'
p1298
g3
((lp1299
g316
ag513
atRp1300
sS'pancreatitis, chronic'
p1301
g3
((lp1302
g451
atRp1303
sS'restless legs syndrome'
p1304
g3
((lp1305
g831
ag249
ag1008
aS'DB00413'
p1306
atRp1307
sS'eye abnormalities'
p1308
g3
((lp1309
g105
atRp1310
sS'myelodysplastic syndromes'
p1311
g3
((lp1312
S'DB00480'
p1313
ag431
ag200
aS'DB00928'
p1314
atRp1315
sS'dermatitis'
p1316
g3
((lp1317
g546
ag771
ag772
ag623
ag61
ag622
ag545
ag531
ag186
ag733
ag543
ag263
ag626
ag185
ag544
ag614
aS'DB01243'
p1318
atRp1319
sS'iron overload'
p1320
g3
((lp1321
g355
ag196
aS'DB01609'
p1322
atRp1323
sS'alcoholism'
p1324
g3
((lp1325
g1022
aS'DB00475'
p1326
ag365
aS'DB00659'
p1327
aS'DB00704'
p1328
aS'DB00822'
p1329
aS'DB00904'
p1330
ag839
atRp1331
sS'kidney failure, chronic'
p1332
g3
((lp1333
g86
ag1056
ag22
ag8
ag355
ag962
ag25
ag32
ag991
ag199
ag896
ag817
ag5
ag999
ag202
ag7
aS'DB00910'
p1334
atRp1335
sS'dent disease'
p1336
g3
((lp1337
g27
atRp1338
sS'multiple myeloma'
p1339
g3
((lp1340
g316
ag144
ag318
ag147
ag160
ag225
ag460
ag161
ag356
ag148
ag151
ag152
ag153
ag85
ag913
ag1313
aS'DB06809'
p1341
ag461
atRp1342
sS'hyperparathyroidism'
p1343
g3
((lp1344
g1334
ag6
ag8
atRp1345
sS'kidney calculi'
p1346
g3
((lp1347
g21
ag27
atRp1348
sS'tuberculosis'
p1349
g3
((lp1350
S'DB01201'
p1351
aS'DB00951'
p1352
ag390
aS'DB00339'
p1353
ag61
aS'DB01082'
p1354
ag407
ag686
aS'DB00314'
p1355
aS'DB00609'
p1356
ag121
ag66
aS'DB00330'
p1357
aS'DB00260'
p1358
ag380
atRp1359
sS'hepatolenticular degeneration'
p1360
g3
((lp1361
g192
atRp1362
sS'sexually transmitted diseases'
p1363
g3
((lp1364
S'DB00207'
p1365
ag1129
atRp1366
sS'cardiovascular diseases'
p1367
g3
((lp1368
g284
ag269
ag286
ag271
aS'DB00152'
p1369
ag444
ag299
ag75
ag86
atRp1370
sS'respiration disorders'
p1371
g3
((lp1372
S'DB01183'
p1373
ag509
atRp1374
sS'uveitis'
p1375
g3
((lp1376
g61
ag825
aS'DB00896'
p1377
ag185
ag66
atRp1378
sS'gout'
p1379
g3
((lp1380
g168
ag797
ag169
ag285
ag61
aS'DB01032'
p1381
ag191
ag186
ag279
ag21
atRp1382
sS'gastrointestinal diseases'
p1383
g3
((lp1384
g61
ag528
ag509
ag617
ag186
aS'DB00804'
p1385
ag185
ag66
ag482
atRp1386
sS'immunologic deficiency syndromes'
p1387
g3
((lp1388
g596
ag602
ag707
atRp1389
sS'vascular diseases'
p1390
g3
((lp1391
g275
ag504
ag664
ag286
ag641
atRp1392
sS'angioedema'
p1393
g3
((lp1394
g486
aS'DB01185'
p1395
ag753
atRp1396
sS'nephritis'
p1397
g3
((lp1398
g328
atRp1399
sS'thrombocytopenia'
p1400
g3
((lp1401
g144
ag147
ag61
ag1215
ag186
ag148
ag1212
ag151
ag152
ag465
aS'DB00038'
p1402
ag584
ag153
atRp1403
sS'lymphoma, non-hodgkin'
p1404
g3
((lp1405
g225
ag460
ag164
aS'DB00059'
p1406
aS'DB01073'
p1407
ag375
ag1265
ag319
ag320
aS'DB08870'
p1408
ag158
ag431
ag523
ag456
ag318
ag61
ag517
aS'DB00242'
p1409
ag521
ag66
ag1341
ag461
atRp1410
sS'malaria'
p1411
g3
((lp1412
g764
ag236
ag16
ag120
aS'DB00468'
p1413
aS'DB00250'
p1414
ag619
aS'DB00358'
p1415
aS'DB06708'
p1416
aS'DB06697'
p1417
atRp1418
sS'carotid artery diseases'
p1419
g3
((lp1420
g284
ag442
ag271
ag261
ag444
ag299
ag277
atRp1421
sS'astrocytoma'
p1422
g3
((lp1423
S'DB00853'
p1424
ag318
ag461
atRp1425
sS'motor neuron disease'
p1426
g3
((lp1427
S'DB00740'
p1428
atRp1429
sS'renal insufficiency, chronic'
p1430
g3
((lp1431
g896
ag1334
atRp1432
sS'pheochromocytoma'
p1433
g3
((lp1434
g302
aS'DB00765'
p1435
aS'DB00692'
p1436
aS'DB00925'
p1437
atRp1438
sS'spinal cord diseases'
p1439
g3
((lp1440
g500
atRp1441
sS'basal cell nevus syndrome'
p1442
g3
((lp1443
S'DB00724'
p1444
atRp1445
sS'intestinal obstruction'
p1446
g3
((lp1447
g451
atRp1448
sS'esophageal diseases'
p1449
g3
((lp1450
g263
atRp1451
sS'brain neoplasms'
p1452
g3
((lp1453
g144
ag159
ag456
ag147
ag528
ag458
ag432
ag1424
ag146
ag148
ag151
ag152
ag153
ag230
ag460
ag461
atRp1454
sS'hyperlipidemia, familial combined'
p1455
g3
((lp1456
g284
ag442
ag271
aS'DB01393'
p1457
ag641
ag606
atRp1458
sS'epidermolysis bullosa'
p1459
g3
((lp1460
g1071
atRp1461
sS'lung diseases'
p1462
g3
((lp1463
g59
ag1365
aS'DB01223'
p1464
ag242
aS'DB00277'
p1465
ag64
ag60
ag67
atRp1466
sS'virus diseases'
p1467
g3
((lp1468
g676
ag672
ag131
ag153
atRp1469
sS'testicular diseases'
p1470
g3
((lp1471
S'DB00624'
p1472
atRp1473
sS'lymphoma, b-cell'
p1474
g3
((lp1475
g1409
ag1265
atRp1476
sS'mucopolysaccharidosis i'
p1477
g3
((lp1478
g427
atRp1479
sS'sleep disorders'
p1480
g3
((lp1481
g181
aS'DB00422'
p1482
aS'DB00285'
p1483
aS'DB00231'
p1484
aS'DB00425'
p1485
aS'DB01440'
p1486
atRp1487
sS'aortic aneurysm'
p1488
g3
((lp1489
S'DB01116'
p1490
atRp1491
sS'collagen diseases'
p1492
g3
((lp1493
g61
ag66
atRp1494
sS'cholelithiasis'
p1495
g3
((lp1496
g190
atRp1497
sS'inflammatory bowel diseases'
p1498
g3
((lp1499
g1133
ag1134
ag379
ag1128
ag186
ag393
ag1135
atRp1500
sS'bronchiectasis'
p1501
g3
((lp1502
g242
atRp1503
sS'gynecomastia'
p1504
g3
((lp1505
g1258
atRp1506
sS'tyrosinemias'
p1507
g3
((lp1508
g197
ag634
atRp1509
sS'epilepsy, generalized'
p1510
g3
((lp1511
g833
atRp1512
sS'postoperative complications'
p1513
g3
((lp1514
g253
ag267
ag293
aS'DB00485'
p1515
ag758
ag329
ag242
ag217
ag744
ag298
aS'DB00713'
p1516
ag130
atRp1517
sS'persistent fetal circulation syndrome'
p1518
g3
((lp1519
S'DB00797'
p1520
atRp1521
sS'congenital hypothyroidism'
p1522
g3
((lp1523
g55
atRp1524
sS'cardiomyopathy, dilated'
p1525
g3
((lp1526
g963
atRp1527
sS'turner syndrome'
p1528
g3
((lp1529
g896
atRp1530
sS'vitamin d deficiency'
p1531
g3
((lp1532
g875
ag6
atRp1533
sS'infertility, male'
p1534
g3
((lp1535
g1103
atRp1536
sS'transposition of great vessels'
p1537
g3
((lp1538
g96
atRp1539
sS'parkinson disease'
p1540
g3
((lp1541
g867
ag1039
aS'DB01367'
p1542
ag1306
ag482
ag1007
aS'DB05271'
p1543
aS'DB00494'
p1544
ag1083
ag1085
ag1008
aS'DB00714'
p1545
ag1009
ag1010
ag1011
ag1012
ag1013
ag825
ag1014
atRp1546
sS'tetralogy of fallot'
p1547
g3
((lp1548
g96
atRp1549
sS'diabetes insipidus, neurogenic'
p1550
g3
((lp1551
g465
atRp1552
sS'vitamin a deficiency'
p1553
g3
((lp1554
g733
atRp1555
sS'diabetes mellitus, type 2'
p1556
g3
((lp1557
g20
ag852
ag23
ag853
ag854
ag855
ag100
ag856
ag857
ag858
ag105
ag860
ag861
ag102
ag863
ag103
ag864
ag29
ag865
ag284
ag286
ag862
ag866
ag101
ag867
ag868
ag869
ag870
aS'DB01124'
p1558
ag300
ag104
ag871
ag107
ag106
aS'DB06655'
p1559
atRp1560
sS'hypogonadism'
p1561
g3
((lp1562
g867
ag821
ag74
ag1395
ag75
ag84
ag1472
ag80
ag81
aS'DB00269'
p1563
atRp1564
sS'blood coagulation disorders'
p1565
g3
((lp1566
g1235
aS'DB00302'
p1567
ag293
atRp1568
sS'thalassemia'
p1569
g3
((lp1570
g355
ag196
atRp1571
sS'uveitis, anterior'
p1572
g3
((lp1573
g659
ag1377
atRp1574
sS'leprosy'
p1575
g3
((lp1576
g1414
ag407
aS'DB00845'
p1577
atRp1578
sS'arthritis, rheumatoid'
p1579
g3
((lp1580
g169
ag742
ag782
ag376
ag508
ag786
ag785
ag787
ag235
ag374
ag317
ag789
ag192
ag528
aS'DB01097'
p1581
ag790
ag381
ag168
ag236
ag285
ag16
ag791
ag24
aS'DB00122'
p1582
ag793
ag176
ag186
ag378
ag794
ag1265
aS'DB06273'
p1583
ag795
ag796
ag61
ag379
ag270
ag797
ag436
aS'DB00026'
p1584
ag798
ag437
ag799
ag800
atRp1585
sS'hyperlipidemias'
p1586
g3
((lp1587
g284
ag442
ag269
ag286
ag271
ag1457
ag641
ag299
ag275
ag444
ag860
aS'DB08860'
p1588
ag606
ag266
atRp1589
sS'prostatic neoplasms'
p1590
g3
((lp1591
g316
ag821
ag159
ag1112
ag318
aS'DB00499'
p1592
ag84
aS'DB01128'
p1593
ag75
aS'DB01196'
p1594
ag1563
aS'DB00255'
p1595
ag230
aS'DB00665'
p1596
ag201
ag523
ag529
aS'DB00014'
p1597
atRp1598
sS'periodontal diseases'
p1599
g3
((lp1600
g408
aS'DB00878'
p1601
atRp1602
sS'heart block'
p1603
g3
((lp1604
g326
ag330
ag825
ag26
atRp1605
sS'fabry disease'
p1606
g3
((lp1607
S'DB00103'
p1608
atRp1609
sS'thyroid diseases'
p1610
g3
((lp1611
g52
ag55
atRp1612
sS'sarcoma'
p1613
g3
((lp1614
g316
ag158
ag159
ag318
ag1150
ag161
ag162
ag163
ag319
ag523
ag164
atRp1615
sS'bone marrow diseases'
p1616
g3
((lp1617
g458
atRp1618
sS'hypoparathyroidism'
p1619
g3
((lp1620
g76
ag6
atRp1621
sS'epilepsy, benign neonatal'
p1622
g3
((lp1623
g953
atRp1624
sS'mouth diseases'
p1625
g3
((lp1626
g263
atRp1627
sS'hypotrichosis'
p1628
g3
((lp1629
S'DB00905'
p1630
atRp1631
sS'stiff-person syndrome'
p1632
g3
((lp1633
g836
atRp1634
sS'adenoma'
p1635
g3
((lp1636
g451
ag1039
atRp1637
sS'osteoarthritis'
p1638
g3
((lp1639
g169
ag742
ag786
ag787
ag793
ag789
ag790
ag168
aS'DB01296'
p1640
ag785
ag285
ag791
ag1582
ag797
ag176
ag757
ag794
ag795
aS'DB00476'
p1641
ag796
ag798
ag799
ag800
atRp1642
sS'intracranial hypertension'
p1643
g3
((lp1644
S'DB00599'
p1645
atRp1646
sS'anemia, hemolytic'
p1647
g3
((lp1648
g1086
atRp1649
sS'stomach neoplasms'
p1650
g3
((lp1651
g158
ag318
ag804
aS'DB00322'
p1652
ag716
ag173
ag317
atRp1653
sS'puberty, precocious'
p1654
g3
((lp1655
g201
ag1258
aS'DB00644'
p1656
aS'DB00666'
p1657
atRp1658
sS'epilepsy, absence'
p1659
g3
((lp1660
g831
ag1067
ag1068
ag248
ag953
ag249
ag399
aS'DB00849'
p1661
ag1078
ag841
aS'DB00347'
p1662
aS'DB00832'
p1663
atRp1664
sS'ossification, heterotopic'
p1665
g3
((lp1666
g72
atRp1667
sS'hyperphosphatemia'
p1668
g3
((lp1669
g5
ag32
atRp1670
sS'scleroderma, systemic'
p1671
g3
((lp1672
g1520
ag236
ag1142
atRp1673
sS'endometriosis'
p1674
g3
((lp1675
g1657
ag228
ag84
aS'DB00304'
p1676
ag486
ag80
aS'DB00367'
p1677
ag201
ag1597
atRp1678
sS'congenital abnormalities'
p1679
g3
((lp1680
g896
atRp1681
sS'methemoglobinemia'
p1682
g3
((lp1683
g197
atRp1684
sS'edema'
p1685
g3
((lp1686
g957
ag992
ag244
ag28
ag746
aS'DB00384'
p1687
ag841
aS'DB00702'
p1688
ag990
ag391
ag528
ag749
ag27
ag994
ag486
ag995
ag960
ag991
ag962
ag25
ag24
ag964
ag993
ag270
ag998
ag999
ag22
ag61
aS'DB00820'
p1689
ag996
ag997
atRp1690
sS'von willebrand diseases'
p1691
g3
((lp1692
g465
atRp1693
sS'sarcoidosis'
p1694
g3
((lp1695
g61
ag66
atRp1696
sS'carcinoma, basal cell'
p1697
g3
((lp1698
g173
aS'DB08828'
p1699
ag1444
atRp1700
sS'arteriosclerosis'
p1701
g3
((lp1702
g275
ag1142
atRp1703
sS'asthma'
p1704
g3
((lp1705
g326
ag546
aS'DB00651'
p1706
aS'DB00221'
p1707
aS'DB01410'
p1708
aS'DB00043'
p1709
ag64
aS'DB00816'
p1710
ag747
aS'DB00871'
p1711
ag528
ag61
ag749
ag762
ag185
aS'DB06709'
p1712
aS'DB00180'
p1713
ag509
aS'DB00549'
p1714
aS'DB00588'
p1715
ag743
aS'DB00744'
p1716
ag330
aS'DB01291'
p1717
ag63
ag186
ag67
ag548
aS'DB00471'
p1718
aS'DB01361'
p1719
ag759
ag60
ag1464
ag59
aS'DB05039'
p1720
ag1465
ag393
ag65
ag66
aS'DB01303'
p1721
ag825
ag68
atRp1722
sS'glomerulosclerosis, focal segmental'
p1723
g3
((lp1724
g508
atRp1725
sS'tetany'
p1726
g3
((lp1727
g826
ag8
atRp1728
sS'narcolepsy'
p1729
g3
((lp1730
g181
ag1482
ag1486
aS'DB01576'
p1731
ag1028
aS'DB00182'
p1732
atRp1733
sS'neutropenia'
p1734
g3
((lp1735
g758
ag591
aS'DB00760'
p1736
ag593
ag663
ag112
ag699
aS'DB00019'
p1737
ag137
ag521
ag136
atRp1738
sS'urinary bladder diseases'
p1739
g3
((lp1740
g481
ag617
aS'DB01036'
p1741
ag1271
aS'DB03166'
p1742
atRp1743
sS'muscular diseases'
p1744
g3
((lp1745
g1166
atRp1746
sS'metabolic diseases'
p1747
g3
((lp1748
g889
atRp1749
sS'pre-eclampsia'
p1750
g3
((lp1751
g285
ag328
atRp1752
sS'purpura, thrombotic thrombocytopenic'
p1753
g3
((lp1754
g663
atRp1755
sS'prolactinoma'
p1756
g3
((lp1757
g1039
atRp1758
sS'malabsorption syndromes'
p1759
g3
((lp1760
g733
ag370
atRp1761
sS'lymphoma'
p1762
g3
((lp1763
g807
ag495
ag159
ag1150
ag806
ag460
ag1264
ag316
ag317
ag879
aS'DB00445'
p1764
ag1058
ag880
ag164
ag144
ag1407
ag581
ag804
ag375
ag1265
ag319
ag320
ag881
ag1408
ag158
ag431
ag523
ag318
ag456
ag61
ag161
ag517
ag1409
ag521
ag66
ag321
ag1341
ag461
atRp1765
sS'respiratory distress syndrome, newborn'
p1766
g3
((lp1767
S'DB00435'
p1768
atRp1769
sS'dermatomycoses'
p1770
g3
((lp1771
S'DB01188'
p1772
aS'DB00971'
p1773
ag185
ag531
atRp1774
sS'porphyrias'
p1775
g3
((lp1776
g12
atRp1777
sS'hodgkin disease'
p1778
g3
((lp1779
g316
ag318
ag158
ag581
ag456
ag460
ag161
ag163
ag1046
ag521
ag319
ag320
ag1117
ag321
ag1408
ag164
ag461
atRp1780
sS'malnutrition'
p1781
g3
((lp1782
g1352
ag37
ag197
ag370
ag198
aS'DB01277'
p1783
atRp1784
sS'colorectal neoplasms'
p1785
g3
((lp1786
g144
ag147
ag225
aS'DB01101'
p1787
ag1117
aS'DB00526'
p1788
ag1652
ag148
ag151
ag152
ag153
ag1151
atRp1789
sS'eye diseases'
p1790
g3
((lp1791
g66
atRp1792
sS'sphingolipidoses'
p1793
g3
((lp1794
g1608
atRp1795
sS'neuralgia'
p1796
g3
((lp1797
g833
ag831
ag1641
ag249
ag838
ag66
ag1278
atRp1798
sS'rhinitis'
p1799
g3
((lp1800
g759
ag60
aS'DB00972'
p1801
aS'DB06711'
p1802
ag482
ag394
atRp1803
sS'stomach diseases'
p1804
g3
((lp1805
S'DB00863'
p1806
aS'DB00183'
p1807
atRp1808
sS'hemorrhage'
p1809
g3
((lp1810
g451
aS'DB00513'
p1811
aS'DB00107'
p1812
ag256
ag285
ag197
ag1235
ag176
aS'DB00569'
p1813
ag228
aS'DB00393'
p1814
ag1567
ag465
aS'DB00396'
p1815
ag584
atRp1816
sS'mycobacterium infections'
p1817
g3
((lp1818
g688
ag1365
aS'DB00479'
p1819
ag933
ag686
ag1354
atRp1820
sS'liver neoplasms'
p1821
g3
((lp1822
g316
atRp1823
sS'genital diseases, female'
p1824
g3
((lp1825
g240
aS'DB00447'
p1826
ag122
ag123
ag138
atRp1827
sS'ovarian hyperstimulation syndrome'
p1828
g3
((lp1829
g1103
atRp1830
sS'hepatitis'
p1831
g3
((lp1832
g676
ag669
atRp1833
sS'acidosis, lactic'
p1834
g3
((lp1835
g386
atRp1836
sS'esophagitis'
p1837
g3
((lp1838
S'DB00364'
p1839
aS'DB00338'
p1840
aS'DB00736'
p1841
aS'DB00448'
p1842
aS'DB00213'
p1843
atRp1844
sS'pancreatic diseases'
p1845
g3
((lp1846
S'DB00522'
p1847
ag1203
atRp1848
sS'huntington disease'
p1849
g3
((lp1850
g416
ag500
ag1276
atRp1851
sS'candidiasis'
p1852
g3
((lp1853
S'DB00646'
p1854
ag591
aS'DB01099'
p1855
ag592
aS'DB01141'
p1856
aS'DB01110'
p1857
ag594
ag392
ag531
aS'DB00362'
p1858
ag596
ag593
ag598
atRp1859
sS'spondylitis, ankylosing'
p1860
g3
((lp1861
g787
ag168
ag797
ag785
ag169
ag376
ag381
ag176
ag436
ag794
ag798
ag437
ag800
atRp1862
sS'vision disorders'
p1863
g3
((lp1864
g385
atRp1865
sS'thrombocythemia, essential'
p1866
g3
((lp1867
g144
ag147
ag148
ag151
ag152
ag153
ag230
ag584
atRp1868
sS'dyskinesias'
p1869
g3
((lp1870
g756
aS'DB00206'
p1871
aS'DB01089'
p1872
atRp1873
sS'glaucoma'
p1874
g3
((lp1875
S'DB00654'
p1876
aS'DB01144'
p1877
aS'DB00677'
p1878
aS'DB00287'
p1879
ag746
ag1630
ag841
aS'DB01210'
p1880
aS'DB01194'
p1881
aS'DB01214'
p1882
aS'DB00521'
p1883
ag273
aS'DB00484'
p1884
aS'DB00964'
p1885
aS'DB00449'
p1886
aS'DB00981'
p1887
aS'DB00411'
p1888
aS'DB00869'
p1889
ag715
ag1151
aS'DB00195'
p1890
ag1278
atRp1891
sS'insulin resistance'
p1892
g3
((lp1893
g863
ag61
ag868
ag186
atRp1894
sS'gaucher disease'
p1895
g3
((lp1896
S'DB06720'
p1897
ag1358
aS'DB00419'
p1898
atRp1899
sS'carcinoma, squamous cell'
p1900
g3
((lp1901
g319
aS'DB00002'
p1902
atRp1903
sS'heart diseases'
p1904
g3
((lp1905
g284
ag442
ag292
ag269
ag286
ag573
ag271
ag299
ag281
ag261
ag350
ag273
ag277
ag84
ag302
ag294
ag606
ag860
ag266
atRp1906
sS'glaucoma, open-angle'
p1907
g3
((lp1908
g1876
ag1879
ag1880
ag1881
ag1884
aS'DB01057'
p1909
ag1882
ag330
ag1883
ag1889
ag273
aS'DB00703'
p1910
ag1886
ag746
ag1630
ag1890
atRp1911
sS'intellectual disability'
p1912
g3
((lp1913
S'DB00490'
p1914
atRp1915
sS'neoplasms'
p1916
g3
((lp1917
g807
ag513
ag146
ag1150
ag432
ag1787
ag458
ag162
ag370
ag316
ag1764
ag528
ag1788
ag1424
ag896
ag509
ag451
ag66
ag1444
ag459
ag186
ag319
ag867
ag61
ag227
ag164
ag84
ag302
ag1902
atRp1918
sS'osteitis deformans'
p1919
g3
((lp1920
g72
ag77
aS'DB01133'
p1921
ag78
ag356
ag85
ag87
atRp1922
sS'proteinuria'
p1923
g3
((lp1924
g20
ag23
atRp1925
sS'ocular hypertension'
p1926
g3
((lp1927
g1876
ag1879
ag1881
ag1884
ag217
ag1889
ag273
ag1885
ag1630
atRp1928
sS'urticaria'
p1929
g3
((lp1930
S'DB00927'
p1931
ag752
aS'DB00950'
p1932
ag753
ag168
ag763
ag754
ag755
aS'DB01620'
p1933
aS'DB00792'
p1934
ag393
aS'DB00585'
p1935
ag745
aS'DB01619'
p1936
ag756
ag774
ag761
aS'DB00719'
p1937
aS'DB00501'
p1938
ag775
atRp1939
sS'skin diseases, infectious'
p1940
g3
((lp1941
S'DB01066'
p1942
aS'DB01607'
p1943
ag111
aS'DB00080'
p1944
ag1365
ag115
ag688
aS'DB00857'
p1945
ag1826
ag118
ag1601
ag543
aS'DB00525'
p1946
ag1857
ag408
ag619
ag121
ag240
aS'DB00239'
p1947
aS'DB00319'
p1948
ag126
aS'DB00948'
p1949
ag129
aS'DB06402'
p1950
ag737
aS'DB01127'
p1951
aS'DB06590'
p1952
atRp1953
sS'corneal diseases'
p1954
g3
((lp1955
g355
aS'DB00693'
p1956
atRp1957
sS'leukemia, lymphocytic, chronic, b-cell'
p1958
g3
((lp1959
g495
ag1407
ag581
ag375
ag161
ag158
ag1409
ag320
ag159
aS'DB00552'
p1960
ag1406
atRp1961
sS'breast neoplasms'
p1962
g3
((lp1963
g821
ag1787
ag1258
ag160
aS'DB00894'
p1964
ag75
aS'DB00380'
p1965
ag316
aS'DB01217'
p1966
ag317
aS'DB00990'
p1967
ag1764
ag84
ag1472
ag521
ag1595
ag173
aS'DB01006'
p1968
ag529
ag695
ag1597
ag458
ag804
aS'DB00947'
p1969
ag228
ag519
aS'DB00072'
p1970
ag320
ag523
ag158
ag455
aS'DB00539'
p1971
ag1395
ag318
ag161
ag1046
ag81
ag716
ag321
ag201
atRp1972
sS'spasms, infantile'
p1973
g3
((lp1974
g839
ag835
ag917
atRp1975
sS'adenocarcinoma'
p1976
g3
((lp1977
g146
ag1150
ag161
ag1059
ag459
ag1151
ag1652
atRp1978
sS'fistula'
p1979
g3
((lp1980
g376
ag749
atRp1981
sS'endocrine system diseases'
p1982
g3
((lp1983
g61
ag66
ag370
ag75
ag1815
ag186
atRp1984
sS'amyotrophic lateral sclerosis'
p1985
g3
((lp1986
g1428
ag760
atRp1987
sS'uremia'
p1988
g3
((lp1989
g61
atRp1990
sS'stomatitis'
p1991
g3
((lp1992
g1839
atRp1993
sS'vasculitis'
p1994
g3
((lp1995
g664
ag61
atRp1996
sS'candidiasis, chronic mucocutaneous'
p1997
g3
((lp1998
g1854
ag591
ag593
ag1945
ag531
ag596
aS'DB00406'
p1999
atRp2000
sS'epilepsy, temporal lobe'
p2001
g3
((lp2002
g1071
ag1077
atRp2003
sS'venous thrombosis'
p2004
g3
((lp2005
g253
ag267
ag293
ag255
ag1211
ag663
ag563
ag298
ag295
ag1213
ag278
ag1210
ag584
atRp2006
sS'hyperlipoproteinemias'
p2007
g3
((lp2008
g284
ag442
ag269
ag286
ag271
ag1246
ag261
ag444
ag1247
ag299
ag275
ag277
ag860
ag1457
ag606
atRp2009
sS'pain'
p2010
g3
((lp2011
S'DB01161'
p2012
aS'DB00899'
p2013
ag742
ag509
aS'DB06800'
p2014
aS'DB00813'
p2015
ag746
aS'DB00818'
p2016
ag793
aS'DB00465'
p2017
ag84
ag338
aS'DB00784'
p2018
ag1328
aS'DB00708'
p2019
aS'DB00540'
p2020
ag1597
ag752
ag285
ag228
ag1168
aS'DB06781'
p2021
ag1641
ag796
aS'DB01086'
p2022
aS'DB01002'
p2023
ag230
ag799
ag795
ag1278
aS'DB01242'
p2024
aS'DB00750'
p2025
aS'DB00577'
p2026
ag1164
aS'DB00611'
p2027
ag744
ag783
ag1483
ag356
ag263
ag317
ag790
ag486
aS'DB00371'
p2028
aS'DB01403'
p2029
ag839
ag168
aS'DB08818'
p2030
ag791
ag477
ag1290
aS'DB00961'
p2031
ag649
ag176
ag186
ag291
aS'DB00296'
p2032
aS'DB00297'
p2033
ag1075
aS'DB00929'
p2034
aS'DB03255'
p2035
ag721
ag1373
aS'DB00458'
p2036
ag825
aS'DB00844'
p2037
ag760
aS'DB01189'
p2038
aS'DB00454'
p2039
aS'DB00508'
p2040
ag797
aS'DB06802'
p2041
ag1677
aS'DB00193'
p2042
aS'DB06204'
p2043
ag1286
ag316
ag833
ag235
ag1167
aS'DB00854'
p2044
ag749
ag720
ag482
ag1171
ag500
aS'DB00647'
p2045
aS'DB00645'
p2046
ag785
aS'DB00721'
p2047
ag1582
aS'DB06723'
p2048
aS'DB00907'
p2049
aS'DB08872'
p2050
ag1170
ag523
aS'DB01209'
p2051
ag625
aS'DB00633'
p2052
ag78
aS'DB00450'
p2053
ag169
ag772
aS'DB00652'
p2054
aS'DB01438'
p2055
aS'DB00497'
p2056
aS'DB01435'
p2057
aS'DB00327'
p2058
ag1285
aS'DB01148'
p2059
aS'DB00934'
p2060
ag177
ag788
aS'DB00333'
p2061
aS'DB00527'
p2062
ag1287
ag838
aS'DB01192'
p2063
aS'DB04896'
p2064
ag751
ag1165
aS'DB01151'
p2065
aS'DB00921'
p2066
ag792
ag191
ag798
ag757
aS'DB00807'
p2067
ag1169
aS'DB00802'
p2068
ag85
aS'DB00686'
p2069
aS'DB01221'
p2070
aS'DB01227'
p2071
ag1135
ag201
ag787
atRp2072
sS'pancreatic neoplasms'
p2073
g3
((lp2074
g451
ag316
ag158
ag804
ag1258
ag227
ag716
ag1117
ag173
atRp2075
sS'splenic diseases'
p2076
g3
((lp2077
g1201
ag1202
atRp2078
sS'adrenocortical hyperfunction'
p2079
g3
((lp2080
g528
ag725
atRp2081
sS'myopia'
p2082
g3
((lp2083
g150
atRp2084
sS'seminoma'
p2085
g3
((lp2086
g159
atRp2087
sS'gram-negative bacterial infections'
p2088
g3
((lp2089
S'DB01155'
p2090
aS'DB00955'
p2091
ag737
aS'DB00698'
p2092
ag1601
ag617
ag933
aS'DB00578'
p2093
aS'DB00576'
p2094
atRp2095
sS'hypertension, pulmonary'
p2096
g3
((lp2097
S'DB01088'
p2098
ag96
aS'DB01275'
p2099
aS'DB00203'
p2100
ag290
aS'DB00559'
p2101
aS'DB00374'
p2102
ag1768
ag1142
atRp2103
sS'epilepsies, partial'
p2104
g3
((lp2105
g830
ag837
aS'DB00842'
p2106
ag833
ag953
aS'DB00186'
p2107
ag1072
ag1074
ag839
ag1076
ag840
ag2050
aS'DB01588'
p2108
atRp2109
sS'neuritis'
p2110
g3
((lp2111
g66
atRp2112
sS'phenylketonurias'
p2113
g3
((lp2114
S'DB00360'
p2115
atRp2116
sS'intestinal diseases'
p2117
g3
((lp2118
g528
ag509
ag370
ag185
ag482
ag186
atRp2119
sS'joint diseases'
p2120
g3
((lp2121
g797
ag169
ag136
ag625
ag176
ag786
ag1826
atRp2122
sS'red-cell aplasia, pure'
p2123
g3
((lp2124
g161
atRp2125
sS'hypertension'
p2126
g3
((lp2127
S'DB08822'
p2128
ag957
ag23
aS'DB01162'
p2129
aS'DB00386'
p2130
ag1687
ag266
aS'DB04861'
p2131
aS'DB00785'
p2132
ag272
ag29
ag995
aS'DB01018'
p2133
ag351
ag1435
ag993
aS'DB01170'
p2134
ag2098
ag1872
ag870
ag300
aS'DB01244'
p2135
ag294
ag1278
ag305
ag262
ag1871
ag259
aS'DB00590'
p2136
ag2100
ag244
ag346
ag990
ag273
aS'DB00270'
p2137
ag2099
ag33
aS'DB00968'
p2138
ag991
ag289
ag288
ag24
ag649
ag302
ag292
ag1768
ag996
ag345
ag1436
aS'DB01180'
p2139
ag22
ag297
aS'DB00457'
p2140
ag1890
aS'DB00226'
p2141
ag268
ag270
ag27
aS'DB00622'
p2142
ag280
aS'DB00629'
p2143
ag1113
ag960
ag332
ag281
ag290
ag999
ag296
ag1689
ag303
ag998
ag997
ag20
ag284
aS'DB01626'
p2144
ag992
aS'DB01023'
p2145
ag347
ag1883
ag28
ag276
aS'DB00401'
p2146
ag265
ag283
ag1437
ag962
ag25
ag349
ag964
ag994
ag348
ag350
ag2101
atRp2147
sS'diabetes insipidus'
p2148
g3
((lp2149
g329
ag465
ag27
atRp2150
sS'melanoma'
p2151
g3
((lp2152
g144
ag456
ag147
ag148
ag225
ag460
ag152
ag160
ag162
ag1424
ag163
ag716
ag151
ag319
ag153
ag230
aS'DB08881'
p2153
ag461
atRp2154
sS'diarrhea'
p2155
g3
((lp2156
g451
aS'DB00507'
p2157
ag330
aS'DB01081'
p2158
aS'DB00614'
p2159
ag261
ag1128
ag131
aS'DB01015'
p2160
ag386
ag277
aS'DB08874'
p2161
ag860
ag825
ag1278
aS'DB01574'
p2162
ag177
atRp2163
sS'cholecystolithiasis'
p2164
g3
((lp2165
g190
atRp2166
sS'erectile dysfunction'
p2167
g3
((lp2168
g504
aS'DB00862'
p2169
ag96
aS'DB01392'
p2170
ag1689
ag2100
aS'DB01404'
p2171
ag81
atRp2172
sS'ear diseases'
p2173
g3
((lp2174
g127
atRp2175
sS'mycobacterium infections, nontuberculous'
p2176
g3
((lp2177
g1365
ag688
ag1357
atRp2178
sS'multiple sclerosis'
p2179
g3
((lp2180
S'DB05259'
p2181
ag66
ag523
ag317
ag1166
ag377
ag499
aS'DB00068'
p2182
ag161
ag370
ag1409
ag500
aS'DB08868'
p2183
ag374
aS'DB00060'
p2184
ag61
ag509
ag760
atRp2185
sS'peripheral vascular diseases'
p2186
g3
((lp2187
S'DB01166'
p2188
ag1520
ag504
aS'DB04838'
p2189
ag275
ag664
ag1142
atRp2190
sS'hepatitis b, chronic'
p2191
g3
((lp2192
g144
ag669
ag153
ag671
ag670
ag672
atRp2193
sS'sleep initiation and maintenance disorders'
p2194
g3
((lp2195
S'DB00690'
p2196
aS'DB00777'
p2197
ag752
aS'DB01215'
p2198
aS'DB00237'
p2199
aS'DB00962'
p2200
aS'DB01031'
p2201
ag1070
aS'DB00656'
p2202
aS'DB00418'
p2203
aS'DB01437'
p2204
aS'DB00189'
p2205
aS'DB00366'
p2206
ag1484
ag2107
aS'DB01589'
p2207
atRp2208
sS'varicose veins'
p2209
g3
((lp2210
S'DB06811'
p2211
aS'DB00464'
p2212
atRp2213
sS'neuroblastoma'
p2214
g3
((lp2215
g316
ag159
ag805
ag318
ag160
ag1043
ag161
ag162
ag163
ag164
atRp2216
sS'retinal diseases'
p2217
g3
((lp2218
g1956
atRp2219
sS'hyperlipoproteinemia type i'
p2220
g3
((lp2221
g442
atRp2222
sS'cyanosis'
p2223
g3
((lp2224
g441
ag443
atRp2225
sS'hyperinsulinism'
p2226
g3
((lp2227
S'DB01119'
p2228
atRp2229
sS'gingival diseases'
p2230
g3
((lp2231
g1601
atRp2232
sS'night blindness'
p2233
g3
((lp2234
g733
atRp2235
sS'osteopetrosis'
p2236
g3
((lp2237
g151
atRp2238
sS'thrombosis'
p2239
g3
((lp2240
g253
ag267
ag293
ag255
ag256
ag1211
ag663
ag563
ag298
ag1212
ag1213
ag279
ag1214
ag584
ag664
atRp2241
sS'myocardial ischemia'
p2242
g3
((lp2243
g253
ag254
ag260
ag298
aS'DB00054'
p2244
ag1214
ag1215
atRp2245
sS'rhinitis, allergic, seasonal'
p2246
g3
((lp2247
g546
ag1932
ag63
ag1708
ag744
ag1933
ag1801
ag745
ag746
ag761
ag394
aS'DB06691'
p2248
ag747
ag743
ag528
ag749
ag750
ag185
aS'DB00405'
p2249
ag1715
ag751
ag752
ag753
ag330
ag754
ag755
ag186
ag548
ag1718
ag760
ag60
ag1713
ag1934
ag2206
ag756
ag763
atRp2250
sS'liver cirrhosis'
p2251
g3
((lp2252
g961
ag957
ag22
ag991
ag25
ag677
ag190
ag153
ag960
ag999
atRp2253
sS'amyloidosis'
p2254
g3
((lp2255
g191
ag242
atRp2256
sS'dyslipidemias'
p2257
g3
((lp2258
g284
ag442
ag269
ag286
ag444
ag299
atRp2259
s.