(dp1
S'diabetic angiopathies'
p2
c__builtin__
set
p3
((lp4
S'DB00806'
p5
atRp6
sS'anemia, megaloblastic'
p7
g3
((lp8
S'DB00158'
p9
aS'DB00650'
p10
atRp11
sS'hypocalcemia'
p12
g3
((lp13
S'DB01164'
p14
aS'DB00136'
p15
aS'DB00326'
p16
aS'DB01070'
p17
aS'DB00258'
p18
aS'DB06724'
p19
atRp20
sS'porphyria, acute intermittent'
p21
g3
((lp22
S'DB00477'
p23
atRp24
sS'edema'
p25
g3
((lp26
S'DB00774'
p27
aS'DB01021'
p28
aS'DB00594'
p29
aS'DB00524'
p30
aS'DB00384'
p31
aS'DB01406'
p32
aS'DB00562'
p33
aS'DB00873'
p34
aS'DB00999'
p35
aS'DB00808'
p36
aS'DB00702'
p37
aS'DB00232'
p38
aS'DB00421'
p39
aS'DB00214'
p40
aS'DB00310'
p41
aS'DB00887'
p42
aS'DB00584'
p43
aS'DB00880'
p44
aS'DB00606'
p45
aS'DB00436'
p46
aS'DB00903'
p47
aS'DB00695'
p48
aS'DB00860'
p49
aS'DB01197'
p50
aS'DB01325'
p51
aS'DB01324'
p52
atRp53
sS'porphyria cutanea tarda'
p54
g3
((lp55
S'DB01611'
p56
atRp57
sS'bronchiectasis'
p58
g3
((lp59
S'DB06151'
p60
atRp61
sS'keratosis'
p62
g3
((lp63
S'DB00544'
p64
aS'DB00179'
p65
aS'DB00586'
p66
aS'DB06768'
p67
atRp68
sS'von willebrand diseases'
p69
g3
((lp70
S'DB00035'
p71
aS'DB00025'
p72
atRp73
sS'fabry disease'
p74
g3
((lp75
S'DB00103'
p76
atRp77
sS'nutritional and metabolic diseases'
p78
g3
((lp79
S'DB00131'
p80
aS'DB00135'
p81
aS'DB00128'
p82
aS'DB00142'
p83
aS'DB00122'
p84
aS'DB00145'
p85
aS'DB00160'
p86
aS'DB00173'
p87
atRp88
sS'hypothyroidism'
p89
g3
((lp90
S'DB00279'
p91
aS'DB01584'
p92
aS'DB00451'
p93
atRp94
sS'nephritis'
p95
g3
((lp96
S'DB00653'
p97
atRp98
sS'histiocytosis'
p99
g3
((lp100
S'DB00570'
p101
aS'DB00773'
p102
atRp103
sS'lymphoma, t-cell, cutaneous'
p104
g3
((lp105
S'DB00307'
p106
aS'DB00553'
p107
atRp108
sS'osteoporosis'
p109
g3
((lp110
S'DB00884'
p111
ag16
aS'DB06285'
p112
aS'DB00630'
p113
aS'DB00282'
p114
ag18
aS'DB00169'
p115
ag19
atRp116
sS'drug hypersensitivity'
p117
g3
((lp118
S'DB00253'
p119
atRp120
sS'arteriosclerosis'
p121
g3
((lp122
S'DB01076'
p123
aS'DB01039'
p124
aS'DB00641'
p125
aS'DB01095'
p126
aS'DB00509'
p127
aS'DB01432'
p128
aS'DB00227'
p129
aS'DB01599'
p130
aS'DB00175'
p131
ag5
aS'DB00636'
p132
aS'DB00375'
p133
aS'DB00930'
p134
aS'DB01240'
p135
aS'DB01241'
p136
atRp137
sS'asthma'
p138
g3
((lp139
S'DB00938'
p140
aS'DB00471'
p141
aS'DB00871'
p142
aS'DB00983'
p143
aS'DB00221'
p144
aS'DB01223'
p145
aS'DB00744'
p146
aS'DB01364'
p147
aS'DB00852'
p148
aS'DB01159'
p149
aS'DB01003'
p150
aS'DB01291'
p151
aS'DB01001'
p152
aS'DB00549'
p153
aS'DB01303'
p154
aS'DB00277'
p155
atRp156
sS'hypoplastic left heart syndrome'
p157
g3
((lp158
S'DB00770'
p159
atRp160
sS'restless legs syndrome'
p161
g3
((lp162
S'DB00564'
p163
aS'DB01068'
p164
atRp165
sS'precursor cell lymphoblastic leukemia-lymphoma'
p166
g3
((lp167
S'DB01181'
p168
aS'DB00694'
p169
aS'DB01033'
p170
aS'DB01177'
p171
aS'DB00531'
p172
aS'DB00023'
p173
aS'DB00020'
p174
aS'DB00059'
p175
atRp176
sS'heart defects, congenital'
p177
g3
((lp178
g159
atRp179
sS'skin diseases, bacterial'
p180
g3
((lp181
S'DB01147'
p182
aS'DB01066'
p183
aS'DB01060'
p184
aS'DB05245'
p185
aS'DB01140'
p186
aS'DB01413'
p187
aS'DB00493'
p188
aS'DB01416'
p189
aS'DB01165'
p190
aS'DB00567'
p191
aS'DB00994'
p192
aS'DB00601'
p193
aS'DB00833'
p194
aS'DB00626'
p195
aS'DB01137'
p196
aS'DB00485'
p197
aS'DB01139'
p198
aS'DB01330'
p199
aS'DB01331'
p200
aS'DB01332'
p201
aS'DB01333'
p202
aS'DB01150'
p203
aS'DB00634'
p204
aS'DB01212'
p205
aS'DB00336'
p206
aS'DB01112'
p207
aS'DB00607'
p208
aS'DB00671'
p209
aS'DB00415'
p210
aS'DB00798'
p211
aS'DB00535'
p212
aS'DB00537'
p213
aS'DB00438'
p214
aS'DB00303'
p215
aS'DB01329'
p216
aS'DB01327'
p217
aS'DB01326'
p218
atRp219
sS'glomerulosclerosis, focal segmental'
p220
g3
((lp221
S'DB00091'
p222
atRp223
sS'diabetes insipidus'
p224
g3
((lp225
S'DB00067'
p226
ag71
atRp227
sS'dermatitis'
p228
g3
((lp229
S'DB00240'
p230
aS'DB01013'
p231
aS'DB00443'
p232
aS'DB00288'
p233
atRp234
sS'tetany'
p235
g3
((lp236
g16
ag14
atRp237
sS'diabetes mellitus, type 1'
p238
g3
((lp239
S'DB01278'
p240
aS'DB00047'
p241
aS'DB00046'
p242
atRp243
sS'liver diseases'
p244
g3
((lp245
g48
ag40
ag42
aS'DB00088'
p246
aS'DB00053'
p247
ag47
atRp248
sS'rhabdomyosarcoma'
p249
g3
((lp250
g102
aS'DB01042'
p251
ag172
aS'DB00970'
p252
aS'DB00851'
p253
aS'DB00541'
p254
atRp255
sS'glioblastoma'
p256
g3
((lp257
S'DB00262'
p258
atRp259
sS'respiratory hypersensitivity'
p260
g3
((lp261
S'DB00561'
p262
atRp263
sS'thrombocytosis'
p264
g3
((lp265
S'DB00791'
p266
aS'DB00291'
p267
atRp268
sS'ductus arteriosus, patent'
p269
g3
((lp270
S'DB00328'
p271
ag159
atRp272
sS'immune system diseases'
p273
g3
((lp274
S'DB00959'
p275
atRp276
sS'alcoholism'
p277
g3
((lp278
S'DB00904'
p279
aS'DB00215'
p280
aS'DB00475'
p281
aS'DB00704'
p282
aS'DB00822'
p283
atRp284
sS'kidney failure, chronic'
p285
g3
((lp286
g48
ag17
ag40
ag16
ag18
ag115
ag42
ag19
ag47
atRp287
sS'esophageal neoplasms'
p288
g3
((lp289
S'DB00958'
p290
aS'DB00563'
p291
aS'DB00515'
p292
atRp293
sS'angioedema'
p294
g3
((lp295
S'DB01185'
p296
atRp297
sS'epilepsy'
p298
g3
((lp299
S'DB00794'
p300
aS'DB00819'
p301
atRp302
sS'rheumatic diseases'
p303
g3
((lp304
S'DB01050'
p305
aS'DB00788'
p306
ag271
ag56
ag49
ag172
aS'DB00605'
p307
aS'DB00741'
p308
aS'DB00620'
p309
aS'DB00635'
p310
atRp311
sS'meningeal neoplasms'
p312
g3
((lp313
S'DB00987'
p314
aS'DB00834'
p315
atRp316
sS'persistent fetal circulation syndrome'
p317
g3
((lp318
S'DB00797'
p319
atRp320
sS'melanoma'
p321
g3
((lp322
S'DB01206'
p323
aS'DB00041'
p324
aS'DB01168'
p325
ag252
ag253
aS'DB01248'
p326
aS'DB00853'
p327
aS'DB01005'
p328
aS'DB00290'
p329
ag258
atRp330
sS'acquired immunodeficiency syndrome'
p331
g3
((lp332
S'DB00503'
p333
aS'DB01601'
p334
aS'DB00220'
p335
aS'DB00495'
p336
aS'DB00109'
p337
aS'DB00649'
p338
aS'DB00224'
p339
aS'DB00625'
p340
aS'DB00701'
p341
aS'DB01232'
p342
aS'DB00300'
p343
aS'DB00705'
p344
aS'DB00709'
p345
aS'DB00900'
p346
aS'DB00238'
p347
atRp348
sS'lung diseases, obstructive'
p349
g3
((lp350
g140
ag142
ag152
aS'DB00956'
p351
ag143
atRp352
sS'hemochromatosis'
p353
g3
((lp354
S'DB00746'
p355
atRp356
sS'multiple myeloma'
p357
g3
((lp358
g292
ag324
ag251
ag172
aS'DB00188'
p359
ag325
ag258
atRp360
sS'hyperparathyroidism'
p361
g3
((lp362
S'DB00910'
p363
ag15
ag17
atRp364
sS'dermatomycoses'
p365
g3
((lp366
S'DB01167'
p367
aS'DB01110'
p368
aS'DB00857'
p369
aS'DB01026'
p370
aS'DB00257'
p371
aS'DB00400'
p372
atRp373
sS'tuberculosis'
p374
g3
((lp375
S'DB00951'
p376
aS'DB00339'
p377
aS'DB00314'
p378
aS'DB01045'
p379
aS'DB00609'
p380
aS'DB00330'
p381
aS'DB00233'
p382
aS'DB00260'
p383
atRp384
sS'urological manifestations'
p385
g3
((lp386
S'DB01438'
p387
aS'DB01148'
p388
atRp389
sS'skin diseases, eczematous'
p390
g3
((lp391
g308
atRp392
sS'keratitis'
p393
g3
((lp394
S'DB00809'
p395
aS'DB00826'
p396
ag34
atRp397
sS'anemia'
p398
g3
((lp399
S'DB00016'
p400
atRp401
sS'respiratory distress syndrome, newborn'
p402
g3
((lp403
S'DB00435'
p404
atRp405
sS'metabolism, inborn errors'
p406
g3
((lp407
S'DB00121'
p408
atRp409
sS'adrenal cortex neoplasms'
p410
g3
((lp411
S'DB00648'
p412
atRp413
sS'conjunctivitis'
p414
g3
((lp415
g150
aS'DB00935'
p416
ag396
ag49
atRp417
sS'epstein-barr virus infections'
p418
g3
((lp419
S'DB00299'
p420
aS'DB00787'
p421
atRp422
sS'splenic diseases'
p423
g3
((lp424
g246
ag247
atRp425
sS'acid-base imbalance'
p426
g3
((lp427
S'DB01390'
p428
atRp429
sS'epilepsies, partial'
p430
g3
((lp431
S'DB00996'
p432
aS'DB01202'
p433
aS'DB00842'
p434
aS'DB00776'
p435
aS'DB01174'
p436
aS'DB00628'
p437
aS'DB00909'
p438
aS'DB00273'
p439
aS'DB00186'
p440
aS'DB00906'
p441
aS'DB00555'
p442
aS'DB01588'
p443
atRp444
sS'hypersensitivity'
p445
g3
((lp446
S'DB01234'
p447
ag275
ag49
ag309
ag310
atRp448
sS'adrenocortical hyperfunction'
p449
g3
((lp450
S'DB00687'
p451
atRp452
sS'hodgkin disease'
p453
g3
((lp454
g292
ag168
aS'DB00888'
p455
ag323
ag325
ag172
ag253
aS'DB00361'
p456
ag174
ag329
ag267
aS'DB00428'
p457
ag101
ag254
ag258
atRp458
sS'cystic fibrosis'
p459
g3
((lp460
g60
aS'DB00003'
p461
ag29
atRp462
sS'epilepsies, myoclonic'
p463
g3
((lp464
g164
atRp465
sS'anemia, hypochromic'
p466
g3
((lp467
S'DB01592'
p468
atRp469
sS'myocardial infarction'
p470
g3
((lp471
S'DB06779'
p472
aS'DB00775'
p473
aS'DB00598'
p474
aS'DB00612'
p475
aS'DB00063'
p476
aS'DB01109'
p477
aS'DB00086'
p478
aS'DB01359'
p479
aS'DB00373'
p480
aS'DB00031'
p481
aS'DB01136'
p482
aS'DB00013'
p483
aS'DB01138'
p484
aS'DB00187'
p485
aS'DB00960'
p486
aS'DB00015'
p487
aS'DB00661'
p488
aS'DB00335'
p489
aS'DB00727'
p490
aS'DB01193'
p491
aS'DB00343'
p492
aS'DB01203'
p493
aS'DB01225'
p494
aS'DB01125'
p495
aS'DB00009'
p496
aS'DB00571'
p497
aS'DB00264'
p498
aS'DB00029'
p499
atRp500
sS'obesity'
p501
g3
((lp502
S'DB00865'
p503
aS'DB00830'
p504
aS'DB01083'
p505
aS'DB00579'
p506
aS'DB01579'
p507
aS'DB00937'
p508
aS'DB01577'
p509
aS'DB00191'
p510
atRp511
sS'essential tremor'
p512
g3
((lp513
g497
atRp514
sS'testicular neoplasms'
p515
g3
((lp516
g168
ag102
ag291
ag292
ag172
ag252
ag329
ag267
ag101
atRp517
sS'primary myelofibrosis'
p518
g3
((lp519
S'DB01008'
p520
atRp521
sS'uveitis'
p522
g3
((lp523
S'DB00572'
p524
atRp525
sS'albinism'
p526
g3
((lp527
S'DB04571'
p528
atRp529
sS'encephalitis, herpes simplex'
p530
g3
((lp531
g421
atRp532
sS'gout'
p533
g3
((lp534
g305
ag306
aS'DB00945'
p535
aS'DB01032'
p536
aS'DB01394'
p537
ag484
aS'DB00437'
p538
atRp539
sS'colorectal neoplasms'
p540
g3
((lp541
g324
aS'DB01101'
p542
aS'DB00526'
p543
aS'DB00322'
p544
aS'DB00305'
p545
ag457
atRp546
sS'hepatitis c'
p547
g3
((lp548
S'DB00811'
p549
atRp550
sS'gastrointestinal diseases'
p551
g3
((lp552
S'DB00804'
p553
ag49
ag310
atRp554
sS'neuralgia'
p555
g3
((lp556
g164
atRp557
sS'diabetic nephropathies'
p558
g3
((lp559
S'DB00691'
p560
aS'DB00876'
p561
aS'DB00966'
p562
aS'DB00678'
p563
aS'DB01029'
p564
aS'DB00492'
p565
aS'DB00722'
p566
aS'DB00796'
p567
aS'DB00881'
p568
aS'DB00790'
p569
ag50
aS'DB00177'
p570
ag43
aS'DB00519'
p571
aS'DB00178'
p572
aS'DB00542'
p573
aS'DB00275'
p574
atRp575
sS'bone diseases'
p576
g3
((lp577
g355
atRp578
sS'severe combined immunodeficiency'
p579
g3
((lp580
S'DB00061'
p581
atRp582
sS'cardiovascular diseases'
p583
g3
((lp584
g115
atRp585
sS'rhinitis'
p586
g3
((lp587
S'DB00764'
p588
aS'DB06711'
p589
aS'DB00424'
p590
ag416
ag147
atRp591
sS'movement disorders'
p592
g3
((lp593
S'DB00387'
p594
aS'DB00810'
p595
aS'DB00376'
p596
atRp597
sS'adenoma'
p598
g3
((lp599
S'DB00104'
p600
atRp601
sS'hemorrhagic disorders'
p602
g3
((lp603
g71
atRp604
sS'carcinoma, basal cell'
p605
g3
((lp606
g64
atRp607
sS'hemorrhage'
p608
g3
((lp609
S'DB00513'
p610
aS'DB00302'
p611
ag71
atRp612
sS'skin neoplasms'
p613
g3
((lp614
g115
atRp615
sS'mycobacterium infections'
p616
g3
((lp617
S'DB01082'
p618
aS'DB00479'
p619
ag380
aS'DB01172'
p620
ag190
atRp621
sS'crohn disease'
p622
g3
((lp623
g115
aS'DB00993'
p624
ag382
atRp625
sS'purpura'
p626
g3
((lp627
g135
atRp628
sS'thrombocytopenia'
p629
g3
((lp630
S'DB00001'
p631
aS'DB00278'
p632
aS'DB00261'
p633
ag71
atRp634
sS'lymphoma, non-hodgkin'
p635
g3
((lp636
g168
aS'DB01073'
p637
ag292
ag323
ag170
ag266
ag324
ag172
aS'DB00242'
p638
ag174
ag329
ag267
ag325
ag101
ag175
ag254
ag258
atRp639
sS'tic disorders'
p640
g3
((lp641
S'DB01100'
p642
ag164
atRp643
sS'heart failure'
p644
g3
((lp645
g490
ag27
ag563
aS'DB00325'
p646
ag475
ag565
ag474
ag43
ag30
ag561
ag33
ag50
ag38
ag570
ag35
ag36
ag480
aS'DB01396'
p647
aS'DB00235'
p648
ag482
ag28
aS'DB00052'
p649
ag485
aS'DB01275'
p650
ag566
ag573
ag574
ag40
ag568
ag42
aS'DB01427'
p651
ag562
ag44
aS'DB01078'
p652
aS'DB00390'
p653
aS'DB00800'
p654
aS'DB04899'
p655
ag46
ag47
ag560
ag493
ag48
ag571
ag567
ag489
ag569
ag41
ag39
ag497
ag498
ag51
ag52
ag572
ag45
atRp656
sS'acidosis'
p657
g3
((lp658
g428
atRp659
sS'genital diseases, female'
p660
g3
((lp661
g205
aS'DB00685'
p662
aS'DB00447'
p663
ag188
aS'DB00717'
p664
ag216
aS'DB00355'
p665
ag199
ag200
ag201
atRp666
sS'wounds and injuries'
p667
g3
((lp668
S'DB00102'
p669
atRp670
sS'colonic neoplasms'
p671
g3
((lp672
g64
aS'DB00848'
p673
aS'DB00762'
p674
ag323
ag258
atRp675
sS'pemphigus'
p676
g3
((lp677
S'DB00995'
p678
aS'DB00608'
p679
atRp680
sS'astrocytoma'
p681
g3
((lp682
g327
ag292
ag258
atRp683
sS'hypoparathyroidism'
p684
g3
((lp685
S'DB00153'
p686
atRp687
sS'hypoprothrombinemias'
p688
g3
((lp689
S'DB01022'
p690
aS'DB00170'
p691
atRp692
sS'factor vii deficiency'
p693
g3
((lp694
g72
atRp695
sS'uveitis, anterior'
p696
g3
((lp697
S'DB00896'
p698
atRp699
sS'leukemia, myelogenous, chronic, bcr-abl positive'
p700
g3
((lp701
g171
ag172
ag266
ag328
ag520
aS'DB00352'
p702
atRp703
sS'acidosis, renal tubular'
p704
g3
((lp705
g428
atRp706
sS'uterine diseases'
p707
g3
((lp708
S'DB00917'
p709
atRp710
sS'meningococcal infections'
p711
g3
((lp712
S'DB01053'
p713
ag210
aS'DB01017'
p714
atRp715
sS'pheochromocytoma'
p716
g3
((lp717
g497
aS'DB00765'
p718
atRp719
sS'familial mediterranean fever'
p720
g3
((lp721
g537
atRp722
sS'esophagitis'
p723
g3
((lp724
S'DB00448'
p725
aS'DB00338'
p726
aS'DB00364'
p727
aS'DB00736'
p728
aS'DB00213'
p729
atRp730
sS'colonic diseases'
p731
g3
((lp732
S'DB00747'
p733
atRp734
sS'malaria'
p735
g3
((lp736
g679
ag56
aS'DB00205'
p737
aS'DB01087'
p738
aS'DB00359'
p739
aS'DB00358'
p740
atRp741
sS'huntington disease'
p742
g3
((lp743
g642
aS'DB00181'
p744
aS'DB00850'
p745
atRp746
sS'heart block'
p747
g3
((lp748
S'DB01064'
p749
aS'DB00668'
p750
aS'DB00988'
p751
atRp752
sS'kidney diseases'
p753
g3
((lp754
g751
atRp755
sS'candidiasis'
p756
g3
((lp757
S'DB00646'
p758
aS'DB00681'
p759
aS'DB01099'
p760
ag367
ag396
ag370
aS'DB00196'
p761
atRp762
sS'spondylitis, ankylosing'
p763
g3
((lp764
g305
ag306
aS'DB00554'
p765
ag66
atRp766
sS'leukemia'
p767
g3
((lp768
g314
aS'DB00982'
p769
ag674
aS'DB00236'
p770
ag254
ag291
atRp771
sS'bacterial infections'
p772
g3
((lp773
S'DB01597'
p774
ag213
aS'DB00033'
p775
atRp776
sS'arthritis, psoriatic'
p777
g3
((lp778
S'DB00005'
p779
ag678
atRp780
sS'arthritis, rheumatoid'
p781
g3
((lp782
g271
ag679
aS'DB00482'
p783
aS'DB00500'
p784
ag678
ag624
ag291
aS'DB00991'
p785
aS'DB00859'
p786
aS'DB01097'
p787
aS'DB00051'
p788
ag305
ag222
ag535
ag56
aS'DB00749'
p789
ag43
ag306
ag66
ag307
aS'DB01009'
p790
aS'DB00861'
p791
aS'DB00795'
p792
ag50
aS'DB00461'
p793
aS'DB00026'
p794
aS'DB00712'
p795
ag779
aS'DB00573'
p796
ag765
atRp797
sS'parkinsonian disorders'
p798
g3
((lp799
g594
atRp800
sS'leukemia, lymphoid'
p801
g3
((lp802
S'DB00444'
p803
atRp804
sS'lung neoplasms'
p805
g3
((lp806
g292
ag168
aS'DB01030'
p807
ag102
ag291
ag323
ag803
ag290
ag172
aS'DB00317'
p808
aS'DB01229'
p809
ag325
ag101
ag115
ag258
atRp810
sS'liver cirrhosis, biliary'
p811
g3
((lp812
S'DB01586'
p813
ag537
ag786
atRp814
sS'thrombocythemia, essential'
p815
g3
((lp816
g328
atRp817
sS'brain neoplasms'
p818
g3
((lp819
g102
ag323
ag325
ag315
ag328
ag258
atRp820
sS'central nervous system neoplasms'
p821
g3
((lp822
g290
atRp823
sS'hypereosinophilic syndrome'
p824
g3
((lp825
g328
atRp826
sS'dyskinesias'
p827
g3
((lp828
S'DB00434'
p829
aS'DB00206'
p830
aS'DB01089'
p831
aS'DB00163'
p832
atRp833
sS'esophageal diseases'
p834
g3
((lp835
S'DB00281'
p836
atRp837
sS'respiration disorders'
p838
g3
((lp839
S'DB01183'
p840
atRp841
sS'glaucoma'
p842
g3
((lp843
S'DB01144'
p844
aS'DB00944'
p845
aS'DB00981'
p846
aS'DB00411'
p847
aS'DB00677'
p848
aS'DB00449'
p849
aS'DB00869'
p850
aS'DB00703'
p851
ag545
aS'DB01194'
p852
ag301
aS'DB00575'
p853
atRp854
sS'epidermolysis bullosa'
p855
g3
((lp856
S'DB00252'
p857
atRp858
sS'medulloblastoma'
p859
g3
((lp860
g258
atRp861
sS'lung diseases'
p862
g3
((lp863
g60
atRp864
sS'eye diseases'
p865
g3
((lp866
g49
ag310
atRp867
sS'uterine neoplasms'
p868
g3
((lp869
g709
ag102
ag252
ag328
atRp870
sS'cataplexy'
p871
g3
((lp872
S'DB01440'
p873
atRp874
sS'ichthyosis vulgaris'
p875
g3
((lp876
g67
atRp877
sS'infant, premature, diseases'
p878
g3
((lp879
g690
atRp880
sS'carcinoma, squamous cell'
p881
g3
((lp882
g329
atRp883
sS'respiratory tract diseases'
p884
g3
((lp885
S'DB00986'
p886
ag49
ag309
aS'DB06715'
p887
ag310
atRp888
sS'mucopolysaccharidosis i'
p889
g3
((lp890
S'DB00090'
p891
atRp892
sS'heart arrest'
p893
g3
((lp894
g750
ag16
ag524
ag14
ag428
atRp895
sS'glaucoma, open-angle'
p896
g3
((lp897
S'DB00654'
p898
aS'DB00287'
p899
aS'DB01210'
p900
ag852
aS'DB00484'
p901
aS'DB01057'
p902
aS'DB01214'
p903
ag750
aS'DB00521'
p904
ag850
ag480
ag851
ag849
aS'DB00388'
p905
aS'DB00905'
p906
aS'DB00195'
p907
atRp908
sS'pancreatitis'
p909
g3
((lp910
S'DB00782'
p911
atRp912
sS'collagen diseases'
p913
g3
((lp914
g49
ag310
atRp915
sS'pre-eclampsia'
p916
g3
((lp917
g97
atRp918
sS'neoplasms'
p919
g3
((lp920
g447
ag275
ag49
ag115
ag310
atRp921
sS'leukemia, eosinophilic, acute'
p922
g3
((lp923
g702
atRp924
sS'dwarfism'
p925
g3
((lp926
g649
atRp927
sS'urination disorders'
p928
g3
((lp929
S'DB00590'
p930
aS'DB01162'
p931
aS'DB00742'
p932
aS'DB00457'
p933
atRp934
sS'vitiligo'
p935
g3
((lp936
g528
aS'DB00600'
p937
ag107
atRp938
sS'cholelithiasis'
p939
g3
((lp940
g813
atRp941
sS'carcinoma, non-small-cell lung'
p942
g3
((lp943
g456
ag807
ag326
ag674
ag328
atRp944
sS'pigmentation disorders'
p945
g3
((lp946
g528
atRp947
sS'ocular hypertension'
p948
g3
((lp949
g898
ag899
ag900
ag849
ag901
ag904
ag932
aS'DB00964'
p950
ag480
ag906
ag907
atRp951
sS'polycystic ovary syndrome'
p952
g3
((lp953
S'DB00094'
p954
atRp955
sS'pulmonary valve stenosis'
p956
g3
((lp957
g159
atRp958
sS'trophoblastic neoplasms'
p959
g3
((lp960
g102
ag291
atRp961
sS'warts'
p962
g3
((lp963
S'DB00936'
p964
aS'DB00724'
p965
aS'DB01179'
p966
atRp967
sS'urticaria'
p968
g3
((lp969
S'DB00927'
p970
aS'DB01075'
p971
aS'DB00950'
p972
aS'DB00501'
p973
aS'DB01237'
p974
aS'DB00341'
p975
aS'DB01114'
p976
aS'DB00967'
p977
aS'DB01619'
p978
aS'DB00792'
p979
aS'DB00585'
p980
aS'DB00283'
p981
aS'DB01620'
p982
ag829
aS'DB01246'
p983
aS'DB00455'
p984
aS'DB00719'
p985
aS'DB00902'
p986
atRp987
sS'skin diseases, infectious'
p988
g3
((lp989
S'DB00319'
p990
aS'DB00417'
p991
aS'DB01211'
p992
aS'DB01607'
p993
aS'DB00207'
p994
ag663
aS'DB00878'
p995
aS'DB00948'
p996
ag215
ag665
aS'DB00406'
p997
atRp998
sS'glioma'
p999
g3
((lp1000
g327
ag258
atRp1001
sS'seizures'
p1002
g3
((lp1003
S'DB00754'
p1004
ag97
aS'DB00949'
p1005
aS'DB01351'
p1006
aS'DB00165'
p1007
ag442
ag301
aS'DB01320'
p1008
atRp1009
sS'anemia, iron-deficiency'
p1010
g3
((lp1011
g468
atRp1012
sS'arterial occlusive diseases'
p1013
g3
((lp1014
g478
ag496
ag5
aS'DB01113'
p1015
atRp1016
sS'lymphoma, b-cell'
p1017
g3
((lp1018
S'DB00073'
p1019
atRp1020
sS'lupus erythematosus, systemic'
p1021
g3
((lp1022
g172
ag222
ag624
ag309
ag56
atRp1023
sS'corneal diseases'
p1024
g3
((lp1025
g355
atRp1026
sS'alzheimer disease'
p1027
g3
((lp1028
S'DB00843'
p1029
aS'DB00313'
p1030
aS'DB01037'
p1031
aS'DB00989'
p1032
ag832
aS'DB00382'
p1033
aS'DB00674'
p1034
atRp1035
sS'leukemia, lymphocytic, chronic, b-cell'
p1036
g3
((lp1037
S'DB00087'
p1038
ag637
ag170
ag266
ag172
ag168
ag638
ag267
ag175
atRp1039
sS'gynecomastia'
p1040
g3
((lp1041
S'DB00675'
p1042
atRp1043
sS'tyrosinemias'
p1044
g3
((lp1045
S'DB00348'
p1046
atRp1047
sS'intellectual disability'
p1048
g3
((lp1049
S'DB00490'
p1050
atRp1051
sS'endometrial neoplasms'
p1052
g3
((lp1053
S'DB00603'
p1054
aS'DB00351'
p1055
aS'DB00007'
p1056
ag290
ag172
atRp1057
sS'narcolepsy'
p1058
g3
((lp1059
S'DB00745'
p1060
aS'DB01576'
p1061
ag509
aS'DB00182'
p1062
aS'DB00422'
p1063
atRp1064
sS'breast neoplasms'
p1065
g3
((lp1066
S'DB00655'
p1067
aS'DB00977'
p1068
ag1042
ag251
aS'DB00894'
p1069
aS'DB00286'
p1070
aS'DB00380'
p1071
aS'DB00997'
p1072
aS'DB01217'
p1073
ag291
aS'DB00990'
p1074
aS'DB00445'
p1075
aS'DB00624'
p1076
ag174
aS'DB00255'
p1077
ag64
aS'DB01006'
p1078
aS'DB00357'
p1079
ag1055
ag542
ag290
ag674
aS'DB00947'
p1080
ag1054
ag171
aS'DB00072'
p1081
ag267
aS'DB01204'
p1082
ag168
ag809
aS'DB00539'
p1083
ag296
ag292
ag172
ag456
aS'DB06710'
p1084
ag326
ag101
ag1056
atRp1085
sS'spasms, infantile'
p1086
g3
((lp1087
g439
atRp1088
sS'actinomycetales infections'
p1089
g3
((lp1090
S'DB01190'
p1091
atRp1092
sS'adenocarcinoma'
p1093
g3
((lp1094
g545
aS'DB00441'
p1095
aS'DB04572'
p1096
atRp1097
sS'myeloproliferative disorders'
p1098
g3
((lp1099
g633
atRp1100
sS'cushing syndrome'
p1101
g3
((lp1102
g1079
ag412
atRp1103
sS'hyperlipoproteinemias'
p1104
g3
((lp1105
g123
ag124
ag125
ag126
ag127
ag128
ag129
ag130
ag131
ag132
ag133
ag134
ag136
atRp1106
sS'amyotrophic lateral sclerosis'
p1107
g3
((lp1108
S'DB00740'
p1109
atRp1110
sS'urinary bladder diseases'
p1111
g3
((lp1112
g911
aS'DB01036'
p1113
aS'DB01062'
p1114
aS'DB01400'
p1115
atRp1116
sS'psoriasis'
p1117
g3
((lp1118
S'DB00092'
p1119
ag964
ag222
ag528
ag291
ag15
aS'DB00688'
p1120
ag232
aS'DB00459'
p1121
ag328
aS'DB02300'
p1122
aS'DB00799'
p1123
ag115
ag107
ag702
atRp1124
sS'phosphorus metabolism disorders'
p1125
g3
((lp1126
S'DB00658'
p1127
atRp1128
sS'skin diseases, genetic'
p1129
g3
((lp1130
S'DB00083'
p1131
atRp1132
sS'fibrosarcoma'
p1133
g3
((lp1134
g253
atRp1135
sS'goiter'
p1136
g3
((lp1137
g93
aS'DB00763'
p1138
ag91
ag92
aS'DB00550'
p1139
atRp1140
sS'vasculitis'
p1141
g3
((lp1142
g5
atRp1143
sS'autoimmune diseases'
p1144
g3
((lp1145
g447
ag275
ag222
ag624
ag310
atRp1146
sS'atrial fibrillation'
p1147
g3
((lp1148
g488
aS'DB00682'
p1149
ag647
aS'DB01182'
p1150
aS'DB00489'
p1151
ag489
aS'DB00204'
p1152
aS'DB00280'
p1153
aS'DB01035'
p1154
ag652
ag653
aS'DB00908'
p1155
ag498
ag492
aS'DB00308'
p1156
atRp1157
sS'bone marrow diseases'
p1158
g3
((lp1159
g290
atRp1160
sS'candidiasis, chronic mucocutaneous'
p1161
g3
((lp1162
g758
ag759
ag367
ag369
ag370
ag761
ag997
atRp1163
sS'thyroid neoplasms'
p1164
g3
((lp1165
g91
aS'DB00024'
p1166
ag92
ag93
atRp1167
sS'puberty, precocious'
p1168
g3
((lp1169
S'DB00644'
p1170
ag1042
ag1056
aS'DB00666'
p1171
atRp1172
sS'hypertriglyceridemia'
p1173
g3
((lp1174
g123
ag124
ag125
ag126
ag128
ag129
ag131
ag132
ag133
ag134
ag136
atRp1175
sS'polycythemia vera'
p1176
g3
((lp1177
g770
ag633
ag520
ag266
ag328
atRp1178
sS'venous thrombosis'
p1179
g3
((lp1180
g472
ag1149
ag477
ag478
aS'DB00946'
p1181
ag494
ag495
aS'DB06822'
p1182
ag483
aS'DB00266'
p1183
atRp1184
sS'pituitary neoplasms'
p1185
g3
((lp1186
g600
atRp1187
sS'cerebral palsy'
p1188
g3
((lp1189
S'DB01219'
p1190
ag744
atRp1191
sS'paget disease, extramammary'
p1192
g3
((lp1193
g111
ag113
ag114
aS'DB01133'
p1194
atRp1195
sS'gastroenteritis'
p1196
g3
((lp1197
S'DB00199'
p1198
atRp1199
sS'malignant hyperthermia'
p1200
g3
((lp1201
g1190
atRp1202
sS'parkinson disease'
p1203
g3
((lp1204
S'DB01200'
p1205
aS'DB00413'
p1206
aS'DB01235'
p1207
aS'DB00494'
p1208
ag1031
aS'DB00268'
p1209
ag595
ag596
aS'DB00245'
p1210
aS'DB00915'
p1211
aS'DB00248'
p1212
aS'DB00190'
p1213
atRp1214
sS'hyperaldosteronism'
p1215
g3
((lp1216
g39
atRp1217
sS'tetralogy of fallot'
p1218
g3
((lp1219
g159
atRp1220
sS'mycoses'
p1221
g3
((lp1222
g759
ag760
ag367
ag369
ag995
ag396
ag370
ag371
ag761
atRp1223
sS'pancreatic neoplasms'
p1224
g3
((lp1225
g600
ag168
ag674
ag1042
ag326
ag457
ag64
atRp1226
sS'diabetes mellitus, type 2'
p1227
g3
((lp1228
S'DB01016'
p1229
aS'DB00839'
p1230
aS'DB00414'
p1231
aS'DB01067'
p1232
aS'DB00412'
p1233
aS'DB01124'
p1234
aS'DB01261'
p1235
aS'DB00731'
p1236
aS'DB00222'
p1237
aS'DB00672'
p1238
aS'DB00331'
p1239
aS'DB00491'
p1240
aS'DB01132'
p1241
ag240
aS'DB00284'
p1242
ag241
ag242
aS'DB00912'
p1243
aS'DB01276'
p1244
atRp1245
sS'tobacco use disorder'
p1246
g3
((lp1247
S'DB00184'
p1248
ag280
aS'DB01156'
p1249
atRp1250
sS'hypogonadism'
p1251
g3
((lp1252
g1205
aS'DB04574'
p1253
ag1067
ag296
ag1070
aS'DB00823'
p1254
ag1068
ag1076
ag664
ag1084
aS'DB00269'
p1255
atRp1256
sS'infertility'
p1257
g3
((lp1258
g1205
aS'DB00010'
p1259
ag1056
atRp1260
sS'hematologic diseases'
p1261
g3
((lp1262
g447
ag275
ag49
ag310
atRp1263
sS'carcinoma, renal cell'
p1264
g3
((lp1265
g1054
ag324
ag328
atRp1266
sS'skin diseases'
p1267
g3
((lp1268
S'DB00755'
p1269
ag49
aS'DB00523'
p1270
aS'DB00825'
p1271
ag310
ag115
atRp1272
sS'ventricular fibrillation'
p1273
g3
((lp1274
S'DB01118'
p1275
ag749
aS'DB00680'
p1276
ag97
ag1151
ag750
ag489
aS'DB01158'
p1277
ag226
ag491
ag836
ag497
ag498
aS'DB00379'
p1278
ag485
atRp1279
sS'inflammatory bowel diseases'
p1280
g3
((lp1281
g150
aS'DB00771'
p1282
atRp1283
sS'blood coagulation disorders'
p1284
g3
((lp1285
g690
ag611
ag691
atRp1286
sS'adenomatous polyposis coli'
p1287
g3
((lp1288
g783
atRp1289
sS'cardiomyopathy, dilated'
p1290
g3
((lp1291
g651
atRp1292
sS'anemia, hemolytic, autoimmune'
p1293
g3
((lp1294
g172
atRp1295
sS'osteolysis'
p1296
g3
((lp1297
g114
atRp1298
sS'gram-negative bacterial infections'
p1299
g3
((lp1300
S'DB00618'
p1301
ag183
ag993
ag184
aS'DB00955'
p1302
ag186
aS'DB00759'
p1303
ag187
aS'DB01415'
p1304
ag188
aS'DB00595'
p1305
ag189
aS'DB01208'
p1306
ag203
ag191
aS'DB00467'
p1307
aS'DB00684'
p1308
ag194
ag995
aS'DB01015'
p1309
aS'DB01059'
p1310
ag714
aS'DB00254'
p1311
ag196
aS'DB01111'
p1312
ag665
ag739
ag198
ag199
ag200
ag201
ag202
aS'DB01155'
p1313
aS'DB01298'
p1314
aS'DB00218'
p1315
ag205
ag996
aS'DB00614'
p1316
ag207
ag620
aS'DB00698'
p1317
ag206
ag209
aS'DB01044'
p1318
ag210
ag211
ag212
ag619
ag213
ag190
aS'DB00578'
p1319
ag214
ag216
ag217
ag218
aS'DB00576'
p1320
atRp1321
sS'leprosy'
p1322
g3
((lp1323
S'DB00250'
p1324
ag379
aS'DB00845'
p1325
atRp1326
sS'rickets'
p1327
g3
((lp1328
g686
ag15
atRp1329
sS'hyperlipoproteinemia type ii'
p1330
g3
((lp1331
S'DB00973'
p1332
atRp1333
sS'hypertension, pulmonary'
p1334
g3
((lp1335
g159
ag135
ag490
aS'DB00559'
p1336
aS'DB00374'
p1337
ag650
atRp1338
sS'coronary disease'
p1339
g3
((lp1340
g473
ag476
ag484
atRp1341
sS'urinary bladder neoplasms'
p1342
g3
((lp1343
g1072
ag102
ag292
ag1096
ag290
ag545
aS'DB00385'
p1344
atRp1345
sS'cystinosis'
p1346
g3
((lp1347
S'DB00847'
p1348
atRp1349
sS'necrosis'
p1350
g3
((lp1351
S'DB00692'
p1352
atRp1353
sS'intestinal diseases'
p1354
g3
((lp1355
g911
ag590
atRp1356
sS'gram-positive bacterial infections'
p1357
g3
((lp1358
g1301
ag182
ag183
ag184
ag186
ag1303
ag187
ag1304
ag188
ag1305
ag189
ag190
ag191
ag193
ag194
ag995
ag1309
ag714
ag195
ag1311
ag206
ag197
ag739
ag198
ag199
ag200
ag201
ag202
ag1314
ag203
ag216
ag205
ag208
ag207
ag620
ag209
ag210
ag212
ag619
ag1317
ag214
aS'DB00713'
p1359
ag217
ag218
ag1320
atRp1360
sS'osteosarcoma'
p1361
g3
((lp1362
g290
ag291
ag292
atRp1363
sS'hyperlipidemias'
p1364
g3
((lp1365
g123
ag124
ag125
ag126
ag127
ag128
ag129
ag130
ag131
aS'DB00627'
p1366
ag132
ag133
ag134
ag136
atRp1367
sS'postoperative complications'
p1368
g3
((lp1369
g182
ag1149
ag477
ag472
aS'DB00512'
p1370
ag226
ag207
ag208
aS'DB01069'
p1371
ag494
ag1359
ag197
aS'DB00916'
p1372
ag199
ag200
atRp1373
sS'leukemia, myeloid, acute'
p1374
g3
((lp1375
g1082
ag171
ag172
ag169
ag102
ag702
atRp1376
sS'prostatic neoplasms'
p1377
g3
((lp1378
g1067
ag1082
aS'DB01216'
p1379
ag292
aS'DB00499'
p1380
ag1068
ag1070
aS'DB01196'
p1381
ag1255
ag1077
ag328
aS'DB00665'
p1382
ag1079
ag1056
aS'DB01128'
p1383
ag102
atRp1384
sS'myositis'
p1385
g3
((lp1386
S'DB00660'
p1387
aS'DB00924'
p1388
aS'DB00697'
p1389
aS'DB00856'
p1390
aS'DB01173'
p1391
aS'DB00395'
p1392
aS'DB00356'
p1393
aS'DB00423'
p1394
atRp1395
sS'periodontal diseases'
p1396
g3
((lp1397
g995
atRp1398
sS'burkitt lymphoma'
p1399
g3
((lp1400
g172
atRp1401
sS'joint diseases'
p1402
g3
((lp1403
g182
ag663
atRp1404
sS'red-cell aplasia, pure'
p1405
g3
((lp1406
g172
atRp1407
sS'stroke'
p1408
g3
((lp1409
g1149
ag477
ag5
atRp1410
sS'stomatitis'
p1411
g3
((lp1412
g727
atRp1413
sS'hypertension'
p1414
g3
((lp1415
g564
ag474
ag563
ag830
ag475
aS'DB01023'
p1416
ag565
ag46
ag29
ag27
ag43
ag30
ag31
aS'DB00657'
p1417
aS'DB00381'
p1418
ag561
ag479
ag33
aS'DB01115'
p1419
ag50
ag904
ag570
ag35
ag36
ag480
aS'DB00700'
p1420
ag482
aS'DB00622'
p1421
aS'DB00401'
p1422
ag38
aS'DB00270'
p1423
ag485
aS'DB00629'
p1424
ag566
ag573
ag574
ag488
aS'DB00968'
p1425
aS'DB00925'
p1426
ag40
ag562
ag42
ag568
ag44
aS'DB01170'
p1427
ag490
ag931
ag497
ag831
aS'DB00350'
p1428
ag498
ag491
ag51
ag47
ag560
ag1352
ag493
ag930
ag48
ag486
ag650
ag571
ag567
ag489
ag569
aS'DB01018'
p1429
ag28
ag41
ag933
ag39
aS'DB01244'
p1430
ag492
ag907
ag52
ag853
ag572
ag45
atRp1431
sS'respiratory tract fistula'
p1432
g3
((lp1433
S'DB00263'
p1434
atRp1435
sS'neisseriaceae infections'
p1436
g3
((lp1437
g994
atRp1438
sS'sarcoma'
p1439
g3
((lp1440
g168
ag1082
ag291
ag292
ag1096
ag253
ag329
atRp1441
sS'hepatitis c, chronic'
p1442
g3
((lp1443
g549
aS'DB00069'
p1444
atRp1445
sS'dementia'
p1446
g3
((lp1447
g1029
ag280
ag1034
ag1032
ag745
aS'DB00734'
p1448
ag1033
aS'DB00433'
p1449
atRp1450
sS'substance-related disorders'
p1451
g3
((lp1452
S'DB01151'
p1453
ag262
atRp1454
sS'arrhythmias, cardiac'
p1455
g3
((lp1456
g1275
ag1150
ag1276
aS'DB01056'
p1457
ag1015
ag97
ag836
atRp1458
sS'anemia, macrocytic'
p1459
g3
((lp1460
g9
atRp1461
sS'head and neck neoplasms'
p1462
g3
((lp1463
g291
ag292
ag290
aS'DB01085'
p1464
ag326
ag328
ag64
ag101
atRp1465
sS'wolff-parkinson-white syndrome'
p1466
g3
((lp1467
S'DB00640'
p1468
atRp1469
sS'hiv infections'
p1470
g3
((lp1471
g333
ag334
ag324
ag335
ag336
ag337
ag338
ag339
ag340
ag341
ag342
ag343
ag344
ag345
ag346
ag347
atRp1472
sS'adrenal hyperplasia, congenital'
p1473
g3
((lp1474
g308
atRp1475
sS'epilepsy, benign neonatal'
p1476
g3
((lp1477
g436
atRp1478
sS'leukemia, neutrophilic, chronic'
p1479
g3
((lp1480
g702
atRp1481
sS'vitamin e deficiency'
p1482
g3
((lp1483
g832
ag15
atRp1484
sS'diarrhea'
p1485
g3
((lp1486
g600
aS'DB00507'
p1487
aS'DB01081'
p1488
ag1316
ag128
aS'DB00836'
p1489
ag133
ag134
ag853
aS'DB01574'
p1490
atRp1491
sS'leiomyoma'
p1492
g3
((lp1493
g1056
atRp1494
sS'addison disease'
p1495
g3
((lp1496
g447
ag451
atRp1497
sS'photosensitivity disorders'
p1498
g3
((lp1499
S'DB01428'
p1500
ag56
atRp1501
sS'alopecia'
p1502
g3
((lp1503
g1379
ag1428
atRp1504
sS'hemophilia a'
p1505
g3
((lp1506
g72
atRp1507
sS'neutropenia'
p1508
g3
((lp1509
g1370
ag759
ag367
ag187
aS'DB00099'
p1510
aS'DB00019'
p1511
ag214
ag213
atRp1512
sS'mouth diseases'
p1513
g3
((lp1514
g995
ag836
atRp1515
sS'erectile dysfunction'
p1516
g3
((lp1517
S'DB01404'
p1518
ag1084
aS'DB01392'
p1519
ag1015
atRp1520
sS'retinoblastoma'
p1521
g3
((lp1522
g172
ag252
atRp1523
sS'ear diseases'
p1524
g3
((lp1525
g204
atRp1526
sS'carcinoma, medullary'
p1527
g3
((lp1528
g253
atRp1529
sS'thromboembolism'
p1530
g3
((lp1531
g472
ag1149
ag477
ag1181
ag1015
ag494
ag495
ag632
ag1182
ag1183
ag631
atRp1532
sS'multiple sclerosis'
p1533
g3
((lp1534
S'DB00115'
p1535
ag624
aS'DB00068'
p1536
ag1190
ag172
aS'DB00200'
p1537
ag638
ag1082
aS'DB00060'
p1538
ag744
atRp1539
sS'peripheral vascular diseases'
p1540
g3
((lp1541
S'DB01166'
p1542
ag319
ag1015
aS'DB04838'
p1543
ag1366
ag135
atRp1544
sS'ovarian neoplasms'
p1545
g3
((lp1546
g1072
ag168
ag807
ag292
ag251
ag266
ag290
ag172
aS'DB00488'
p1547
ag456
ag809
ag326
ag267
ag328
ag1056
atRp1548
sS'sleep initiation and maintenance disorders'
p1549
g3
((lp1550
S'DB00690'
p1551
aS'DB00777'
p1552
ag971
aS'DB01215'
p1553
aS'DB00237'
p1554
aS'DB01352'
p1555
aS'DB01031'
p1556
ag1006
aS'DB00962'
p1557
aS'DB00656'
p1558
aS'DB00418'
p1559
aS'DB01437'
p1560
aS'DB00189'
p1561
aS'DB00366'
p1562
aS'DB00231'
p1563
ag440
ag974
aS'DB01589'
p1564
atRp1565
sS'anemia, hemolytic'
p1566
g3
((lp1567
g832
atRp1568
sS'varicose veins'
p1569
g3
((lp1570
S'DB00464'
p1571
atRp1572
sS'dermatitis, atopic'
p1573
g3
((lp1574
S'DB00864'
p1575
aS'DB01142'
p1576
aS'DB00337'
p1577
ag232
aS'DB00427'
p1578
ag983
ag986
atRp1579
sS'neurologic manifestations'
p1580
g3
((lp1581
g275
atRp1582
sS'pain'
p1583
g3
((lp1584
S'DB01161'
p1585
aS'DB00750'
p1586
aS'DB01397'
p1587
aS'DB00899'
p1588
ag271
ag351
aS'DB00652'
p1589
ag387
aS'DB00497'
p1590
aS'DB01435'
p1591
aS'DB00327'
p1592
aS'DB00321'
p1593
aS'DB00813'
p1594
aS'DB00285'
p1595
aS'DB00454'
p1596
ag836
ag789
aS'DB00818'
p1597
aS'DB00508'
p1598
ag1576
aS'DB00645'
p1599
ag432
aS'DB08797'
p1600
aS'DB08818'
p1601
aS'DB00854'
p1602
aS'DB01399'
p1603
aS'DB00527'
p1604
ag306
aS'DB00934'
p1605
aS'DB01403'
p1606
aS'DB00611'
p1607
ag439
aS'DB00708'
p1608
aS'DB01192'
p1609
ag1394
ag1390
aS'DB00647'
p1610
aS'DB00318'
p1611
ag1388
ag783
ag535
aS'DB00921'
p1612
aS'DB00721'
p1613
ag305
aS'DB06707'
p1614
ag1391
ag66
ag1371
aS'DB00295'
p1615
aS'DB00297'
p1616
ag1392
aS'DB00961'
p1617
aS'DB00292'
p1618
ag1453
aS'DB00907'
p1619
aS'DB03255'
p1620
aS'DB00458'
p1621
ag1393
ag1082
aS'DB00844'
p1622
ag791
ag1389
aS'DB01209'
p1623
aS'DB01189'
p1624
aS'DB01221'
p1625
aS'DB01086'
p1626
ag1271
aS'DB00784'
p1627
aS'DB01002'
p1628
aS'DB00633'
p1629
ag1387
ag793
aS'DB00963'
p1630
ag796
ag790
aS'DB00193'
p1631
aS'DB00450'
p1632
aS'DB01242'
p1633
aS'DB00540'
p1634
atRp1635
sS'neoplasms, germ cell and embryonal'
p1636
g3
((lp1637
g290
atRp1638
sS'neuroblastoma'
p1639
g3
((lp1640
g102
ag769
ag292
ag251
ag172
ag252
ag253
ag254
atRp1641
sS'skin diseases, vesiculobullous'
p1642
g3
((lp1643
S'DB00891'
p1644
atRp1645
sS'sarcoma, ewing'
p1646
g3
((lp1647
g102
ag172
ag252
atRp1648
sS'kidney neoplasms'
p1649
g3
((lp1650
g101
ag323
atRp1651
sS'arthritis'
p1652
g3
((lp1653
g1603
atRp1654
sS'sleep disorders'
p1655
g3
((lp1656
S'DB00425'
p1657
atRp1658
sS'nephrotic syndrome'
p1659
g3
((lp1660
g27
ag33
ag48
ag40
ag28
ag42
ag172
ag44
ag35
ag45
ag36
ag38
ag30
ag41
ag51
ag52
ag46
ag47
atRp1661
sS'adrenal insufficiency'
p1662
g3
((lp1663
g49
ag310
ag309
ag308
atRp1664
sS'seizures, febrile'
p1665
g3
((lp1666
g436
atRp1667
sS'gaucher disease'
p1668
g3
((lp1669
g383
atRp1670
sS'osteoarthritis'
p1671
g3
((lp1672
g784
ag305
ag793
ag765
ag271
ag785
ag791
ag789
ag783
aS'DB01296'
p1673
ag66
ag306
ag307
aS'DB00814'
p1674
ag795
ag796
ag790
ag535
atRp1675
sS'herpesviridae infections'
p1676
g3
((lp1677
S'DB00249'
p1678
atRp1679
sS'carcinoma'
p1680
g3
((lp1681
g1382
ag1077
ag258
atRp1682
sS'intracranial hypertension'
p1683
g3
((lp1684
S'DB00599'
p1685
atRp1686
sS'liver cirrhosis'
p1687
g3
((lp1688
g40
ag42
ag48
ag47
atRp1689
sS'hyperbilirubinemia'
p1690
g3
((lp1691
g436
atRp1692
sS'hypercalcemia'
p1693
g3
((lp1694
S'DB00974'
p1695
aS'DB05260'
p1696
ag114
ag310
atRp1697
sS'colitis, ulcerative'
p1698
g3
((lp1699
g624
ag792
ag308
aS'DB01014'
p1700
aS'DB00244'
p1701
ag1248
aS'DB01250'
p1702
atRp1703
sS'cystinuria'
p1704
g3
((lp1705
g786
atRp1706
sS'stomach neoplasms'
p1707
g3
((lp1708
g168
ag291
ag292
ag674
ag544
ag326
ag64
atRp1709
sS'lymphoma'
p1710
g3
((lp1711
g314
ag1082
ag291
ag674
ag1096
ag173
ag102
ag455
atRp1712
sS'scleroderma, systemic'
p1713
g3
((lp1714
g319
ag679
ag135
atRp1715
sS'leukemia, promyelocytic, acute'
p1716
g3
((lp1717
g1269
atRp1718
sS'hyperthyroidism'
p1719
g3
((lp1720
g1138
ag887
ag1139
atRp1721
sS'primary ovarian insufficiency'
p1722
g3
((lp1723
g1067
ag1253
ag1068
ag1070
atRp1724
sS'ovarian diseases'
p1725
g3
((lp1726
g1070
ag1068
ag954
ag1067
atRp1727
sS'epilepsy, temporal lobe'
p1728
g3
((lp1729
g857
aS'DB00532'
p1730
atRp1731
sS'endometriosis'
p1732
g3
((lp1733
g1171
ag1254
aS'DB00304'
p1734
ag32
ag664
ag1056
atRp1735
sS'osteopetrosis'
p1736
g3
((lp1737
g775
atRp1738
sS'cerebrovascular disorders'
p1739
g3
((lp1740
g5
atRp1741
sS'thrombosis'
p1742
g3
((lp1743
g5
atRp1744
sS'myocardial ischemia'
p1745
g3
((lp1746
g473
ag1015
ag490
atRp1747
sS'epilepsy, absence'
p1748
g3
((lp1749
S'DB05246'
p1750
aS'DB00849'
p1751
ag1030
ag164
aS'DB00347'
p1752
aS'DB00593'
p1753
aS'DB00832'
p1754
atRp1755
sS'mycobacterium infections, nontuberculous'
p1756
g3
((lp1757
g994
ag992
ag381
atRp1758
sS'bartter syndrome'
p1759
g3
((lp1760
g43
ag50
atRp1761
sS'protozoan infections'
p1762
g3
((lp1763
S'DB00738'
p1764
atRp1765
sS'myasthenia gravis'
p1766
g3
((lp1767
S'DB00545'
p1768
ag222
ag172
ag1115
atRp1769
sS'dystonia'
p1770
g3
((lp1771
S'DB00042'
p1772
ag1131
atRp1773
sS'amyloidosis'
p1774
g3
((lp1775
g537
ag60
atRp1776
sS'coronary artery disease'
p1777
g3
((lp1778
g123
ag124
ag125
ag126
ag127
ag128
ag129
ag130
ag131
ag132
ag133
ag134
ag136
atRp1779
sS'tourette syndrome'
p1780
g3
((lp1781
S'DB00502'
p1782
ag1417
ag642
ag745
ag1448
aS'DB00246'
p1783
ag853
atRp1784
s.