(dp1
S'monilethrix'
p2
c__builtin__
set
p3
((lp4
S'DB00350'
p5
atRp6
sS'xanthomatosis, cerebrotendinous'
p7
g3
((lp8
S'DB06777'
p9
atRp10
sS'sarcoma, alveolar soft part'
p11
g3
((lp12
S'DB00997'
p13
aS'DB06589'
p14
aS'DB00851'
p15
atRp16
sS'pseudohypoaldosteronism'
p17
g3
((lp18
S'DB00738'
p19
aS'DB01109'
p20
aS'DB00091'
p21
aS'DB00440'
p22
aS'DB01390'
p23
atRp24
sS'carcinoma, basal cell'
p25
g3
((lp26
g13
aS'DB00544'
p27
aS'DB00515'
p28
atRp29
sS'asthma'
p30
g3
((lp31
S'DB01064'
p32
aS'DB00471'
p33
aS'DB00871'
p34
aS'DB01364'
p35
aS'DB01291'
p36
aS'DB01222'
p37
aS'DB00744'
p38
aS'DB00983'
p39
aS'DB00588'
p40
aS'DB00938'
p41
aS'DB01001'
p42
aS'DB00816'
p43
aS'DB00394'
p44
aS'DB00651'
p45
aS'DB01303'
p46
aS'DB00277'
p47
aS'DB00549'
p48
atRp49
sS'spastic paraplegia, hereditary'
p50
g3
((lp51
S'DB00181'
p52
atRp53
sS'diabetes insipidus, neurogenic'
p54
g3
((lp55
S'DB00067'
p56
aS'DB00035'
p57
atRp58
sS'cholestasis'
p59
g3
((lp60
S'DB01586'
p61
aS'DB01045'
p62
atRp63
sS'narcolepsy'
p64
g3
((lp65
S'DB00579'
p66
aS'DB00745'
p67
atRp68
sS'bartter syndrome'
p69
g3
((lp70
S'DB00384'
p71
aS'DB00421'
p72
atRp73
sS'nasopharyngeal neoplasms'
p74
g3
((lp75
g27
aS'DB00958'
p76
aS'DB01248'
p77
ag28
aS'DB01229'
p78
atRp79
sS'myoclonic epilepsies, progressive'
p80
g3
((lp81
S'DB00593'
p82
aS'DB01202'
p83
aS'DB00349'
p84
aS'DB01068'
p85
aS'DB00909'
p86
atRp87
sS'propionic acidemia'
p88
g3
((lp89
S'DB00583'
p90
aS'DB06775'
p91
atRp92
sS'mesothelioma'
p93
g3
((lp94
g28
atRp95
sS'retinitis pigmentosa'
p96
g3
((lp97
S'DB06712'
p98
atRp99
sS'mevalonate kinase deficiency'
p100
g3
((lp101
S'DB00026'
p102
aS'DB00641'
p103
atRp104
sS'tuberculosis'
p105
g3
((lp106
S'DB01201'
p107
aS'DB00951'
p108
aS'DB00339'
p109
ag62
aS'DB00609'
p110
aS'DB00314'
p111
aS'DB00233'
p112
aS'DB08903'
p113
aS'DB00330'
p114
atRp115
sS'hepatolenticular degeneration'
p116
g3
((lp117
S'DB00859'
p118
atRp119
sS'spinocerebellar ataxias'
p120
g3
((lp121
S'DB00555'
p122
atRp123
sS'precursor t-cell lymphoblastic leukemia-lymphoma'
p124
g3
((lp125
S'DB00987'
p126
aS'DB08886'
p127
aS'DB00563'
p128
aS'DB00635'
p129
atRp130
sS'adrenal cortex neoplasms'
p131
g3
((lp132
S'DB00648'
p133
atRp134
sS'granulomatous disease, chronic'
p135
g3
((lp136
S'DB00582'
p137
aS'DB00601'
p138
aS'DB01167'
p139
aS'DB01263'
p140
atRp141
sS'gitelman syndrome'
p142
g3
((lp143
S'DB00700'
p144
ag71
ag72
atRp145
sS'cystic fibrosis'
p146
g3
((lp147
g61
aS'DB08820'
p148
atRp149
sS'testicular neoplasms'
p150
g3
((lp151
S'DB01181'
p152
ag76
aS'DB00773'
p153
ag28
atRp154
sS'argininosuccinic aciduria'
p155
g3
((lp156
S'DB00313'
p157
atRp158
sS'homocystinuria'
p159
g3
((lp160
S'DB00165'
p161
atRp162
sS'colorectal neoplasms'
p163
g3
((lp164
g126
aS'DB00650'
p165
aS'DB00762'
p166
aS'DB01101'
p167
aS'DB00526'
p168
aS'DB00305'
p169
ag27
atRp170
sS'familial mediterranean fever'
p171
g3
((lp172
S'DB00005'
p173
ag102
atRp174
sS'myasthenic syndromes, congenital'
p175
g3
((lp176
g42
atRp177
sS'andersen syndrome'
p178
g3
((lp179
S'DB01144'
p180
atRp181
sS'myotonic disorders'
p182
g3
((lp183
S'DB00999'
p184
atRp185
sS'amyotrophic lateral sclerosis'
p186
g3
((lp187
S'DB04844'
p188
aS'DB00740'
p189
atRp190
sS'hyperargininemia'
p191
g3
((lp192
g157
atRp193
sS'dermatitis, atopic'
p194
g3
((lp195
S'DB01047'
p196
aS'DB00688'
p197
ag21
atRp198
sS'lipid metabolism, inborn errors'
p199
g3
((lp200
g90
atRp201
sS'chondrosarcoma'
p202
g3
((lp203
g13
ag14
ag15
atRp204
sS'kallmann syndrome'
p205
g3
((lp206
S'DB00624'
p207
aS'DB06710'
p208
aS'DB01185'
p209
aS'DB00396'
p210
atRp211
sS'liposarcoma, myxoid'
p212
g3
((lp213
g13
ag14
ag15
atRp214
sS'glucosephosphate dehydrogenase deficiency'
p215
g3
((lp216
S'DB00250'
p217
aS'DB00608'
p218
atRp219
sS'endometrial neoplasms'
p220
g3
((lp221
g27
ag169
aS'DB00531'
p222
ag78
atRp223
sS'paralysis, hyperkalemic periodic'
p224
g3
((lp225
g42
ag180
ag184
atRp226
sS'hodgkin disease'
p227
g3
((lp228
S'DB04572'
p229
aS'DB01168'
p230
ag222
ag15
aS'DB00570'
p231
aS'DB08870'
p232
atRp233
sS'neuronal ceroid-lipofuscinoses'
p234
g3
((lp235
S'DB00847'
p236
atRp237
sS'leukemia, myelogenous, chronic, bcr-abl positive'
p238
g3
((lp239
S'DB00619'
p240
ag126
ag128
ag229
ag222
ag169
aS'DB01005'
p241
aS'DB01008'
p242
aS'DB01254'
p243
atRp244
sS'acidosis, renal tubular'
p245
g3
((lp246
S'DB00681'
p247
ag19
aS'DB01033'
p248
aS'DB00125'
p249
aS'DB01356'
p250
ag22
ag23
aS'DB00594'
p251
aS'DB00428'
p252
aS'DB00819'
p253
atRp254
sS'breast neoplasms'
p255
g3
((lp256
g13
aS'DB00990'
p257
ag126
aS'DB00539'
p258
ag128
aS'DB00947'
p259
aS'DB00445'
p260
aS'DB00977'
p261
aS'DB00675'
p262
ag222
aS'DB06366'
p263
aS'DB04845'
p264
aS'DB01217'
p265
ag169
aS'DB01006'
p266
aS'DB01259'
p267
ag27
ag77
aS'DB08871'
p268
aS'DB00014'
p269
ag78
atRp270
sS'gallbladder diseases'
p271
g3
((lp272
g61
ag9
atRp273
sS'malaria'
p274
g3
((lp275
g218
aS'DB01611'
p276
aS'DB01103'
p277
aS'DB00205'
p278
aS'DB00468'
p279
aS'DB01087'
p280
aS'DB01117'
p281
aS'DB01131'
p282
aS'DB00358'
p283
aS'DB06708'
p284
aS'DB06697'
p285
atRp286
sS'candidiasis'
p287
g3
((lp288
S'DB00646'
p289
ag139
aS'DB01141'
p290
aS'DB01110'
p291
ag137
aS'DB01188'
p292
aS'DB01026'
p293
aS'DB00257'
p294
aS'DB00239'
p295
atRp296
sS'vitiligo'
p297
g3
((lp298
S'DB00169'
p299
atRp300
sS'lupus erythematosus, systemic'
p301
g3
((lp302
g118
ag108
aS'DB00993'
p303
aS'DB00477'
p304
aS'DB00959'
p305
ag197
ag222
aS'DB00252'
p306
aS'DB08879'
p307
ag129
atRp308
sS'hyperlipidemia, familial combined'
p309
g3
((lp310
g103
aS'DB01599'
p311
aS'DB00973'
p312
aS'DB01393'
p313
atRp314
sS'diabetes insipidus, nephrogenic'
p315
g3
((lp316
g57
atRp317
sS'citrullinemia'
p318
g3
((lp319
g157
atRp320
sS'gaucher disease'
p321
g3
((lp322
S'DB06720'
p323
aS'DB08876'
p324
aS'DB00088'
p325
aS'DB00053'
p326
atRp327
sS'carcinoma, squamous cell'
p328
g3
((lp329
g13
ag27
ag21
ag28
atRp330
sS'leigh disease'
p331
g3
((lp332
S'DB00126'
p333
ag90
atRp334
sS'osteitis deformans'
p335
g3
((lp336
S'DB01077'
p337
aS'DB00884'
p338
atRp339
sS'carcinoma, non-small-cell lung'
p340
g3
((lp341
g78
ag153
ag28
ag76
aS'DB00441'
p342
aS'DB00317'
p343
aS'DB00361'
p344
ag77
ag231
atRp345
sS'uterine cervical neoplasms'
p346
g3
((lp347
g13
ag152
ag153
ag128
ag28
ag76
ag222
ag169
aS'DB00255'
p348
ag27
ag231
ag166
atRp349
sS'warts'
p350
g3
((lp351
S'DB00724'
p352
atRp353
sS'glioma'
p354
g3
((lp355
g230
aS'DB01206'
p356
aS'DB00262'
p357
atRp358
sS'ornithine carbamoyltransferase deficiency disease'
p359
g3
((lp360
g157
atRp361
sS'sarcoma, clear cell'
p362
g3
((lp363
g13
ag14
ag15
atRp364
sS'alzheimer disease'
p365
g3
((lp366
S'DB00843'
p367
aS'DB00674'
p368
aS'DB00989'
p369
aS'DB01043'
p370
atRp371
sS'leukemia, lymphocytic, chronic, b-cell'
p372
g3
((lp373
S'DB01073'
p374
ag128
ag229
ag222
ag169
aS'DB00291'
p375
ag129
atRp376
sS'migraine with aura'
p377
g3
((lp378
g122
atRp379
sS'carcinoma, hepatocellular'
p380
g3
((lp381
g13
ag126
ag28
ag169
atRp382
sS'leukemia, myeloid, acute'
p383
g3
((lp384
g242
ag126
ag375
aS'DB06809'
p385
atRp386
sS'rhabdomyosarcoma, alveolar'
p387
g3
((lp388
g13
ag14
ag15
atRp389
sS'precursor b-cell lymphoblastic leukemia-lymphoma'
p390
g3
((lp391
g240
ag126
ag128
aS'DB01280'
p392
ag127
ag129
atRp393
sS'sjogren-larsson syndrome'
p394
g3
((lp395
S'DB00185'
p396
atRp397
sS'cryopyrin-associated periodic syndromes'
p398
g3
((lp399
S'DB06168'
p400
ag102
aS'DB06372'
p401
atRp402
sS'sarcoma, ewing'
p403
g3
((lp404
g13
ag152
ag153
ag76
ag222
aS'DB00970'
p405
ag15
ag242
atRp406
sS'polycythemia vera'
p407
g3
((lp408
g242
ag222
ag241
atRp409
sS'carbamoyl-phosphate synthase i deficiency disease'
p410
g3
((lp411
g157
atRp412
sS'parkinson disease'
p413
g3
((lp414
S'DB01367'
p415
aS'DB00413'
p416
aS'DB08824'
p417
aS'DB01235'
p418
aS'DB05271'
p419
aS'DB00494'
p420
aS'DB01037'
p421
aS'DB00340'
p422
aS'DB00810'
p423
aS'DB00915'
p424
aS'DB00248'
p425
aS'DB06262'
p426
aS'DB00190'
p427
atRp428
sS'diabetes mellitus, type 1'
p429
g3
((lp430
S'DB01309'
p431
aS'DB00047'
p432
aS'DB00046'
p433
aS'DB00030'
p434
aS'DB01278'
p435
aS'DB08914'
p436
aS'DB01307'
p437
aS'DB01306'
p438
atRp439
sS'pancreatic neoplasms'
p440
g3
((lp441
g27
ag126
ag342
ag169
atRp442
sS'diabetes mellitus, type 2'
p443
g3
((lp444
S'DB01067'
p445
aS'DB00731'
p446
aS'DB00222'
p447
aS'DB00672'
p448
ag432
aS'DB00491'
p449
ag436
aS'DB06335'
p450
aS'DB08882'
p451
aS'DB00912'
p452
aS'DB00839'
p453
aS'DB01132'
p454
ag435
aS'DB01016'
p455
aS'DB00284'
p456
aS'DB01252'
p457
aS'DB01251'
p458
aS'DB01276'
p459
aS'DB00331'
p460
aS'DB08907'
p461
aS'DB06203'
p462
ag433
aS'DB04878'
p463
aS'DB00414'
p464
aS'DB00412'
p465
ag431
aS'DB01124'
p466
ag434
aS'DB01120'
p467
ag438
ag437
aS'DB06655'
p468
atRp469
sS'melas syndrome'
p470
g3
((lp471
g249
atRp472
sS'hypogonadism'
p473
g3
((lp474
g207
ag208
ag209
ag210
atRp475
sS'carcinoma, renal cell'
p476
g3
((lp477
S'DB06626'
p478
aS'DB01268'
p479
aS'DB06287'
p480
aS'DB01590'
p481
aS'DB00322'
p482
ag231
atRp483
sS'adrenoleukodystrophy'
p484
g3
((lp485
S'DB01039'
p486
aS'DB00227'
p487
atRp488
sS'hyperlipoproteinemia type iii'
p489
g3
((lp490
S'DB00175'
p491
ag486
ag313
atRp492
sS'arthritis, rheumatoid'
p493
g3
((lp494
S'DB00995'
p495
aS'DB00482'
p496
aS'DB00991'
p497
aS'DB01399'
p498
aS'DB00795'
p499
aS'DB01281'
p500
aS'DB01097'
p501
aS'DB00461'
p502
aS'DB00586'
p503
aS'DB00939'
p504
aS'DB06674'
p505
ag102
aS'DB00814'
p506
ag173
aS'DB00573'
p507
aS'DB06273'
p508
aS'DB06725'
p509
atRp510
sS'urinary bladder neoplasms'
p511
g3
((lp512
g231
ag153
ag128
ag28
ag229
atRp513
sS'cystinosis'
p514
g3
((lp515
g236
atRp516
sS'46, xx disorders of sex development'
p517
g3
((lp518
S'DB01406'
p519
atRp520
sS'biotinidase deficiency'
p521
g3
((lp522
S'DB00121'
p523
atRp524
sS'esophageal neoplasms'
p525
g3
((lp526
g27
ag169
ag28
atRp527
sS'osteosarcoma'
p528
g3
((lp529
g13
ag152
ag128
atRp530
sS'fabry disease'
p531
g3
((lp532
S'DB00564'
p533
atRp534
sS'burkitt lymphoma'
p535
g3
((lp536
g13
ag222
ag129
atRp537
sS'hepatitis b'
p538
g3
((lp539
S'DB00879'
p540
aS'DB00709'
p541
aS'DB00718'
p542
aS'DB00442'
p543
atRp544
sS'hepatitis c'
p545
g3
((lp546
S'DB00811'
p547
aS'DB05521'
p548
aS'DB08873'
p549
atRp550
sS'graves disease'
p551
g3
((lp552
S'DB00763'
p553
aS'DB00550'
p554
atRp555
sS'dihydropyrimidine dehydrogenase deficiency'
p556
g3
((lp557
g27
atRp558
sS'hypokalemic periodic paralysis'
p559
g3
((lp560
g180
atRp561
sS'adrenal hyperplasia, congenital'
p562
g3
((lp563
g519
atRp564
sS'crohn disease'
p565
g3
((lp566
S'DB08904'
p567
aS'DB00244'
p568
atRp569
sS'ovarian neoplasms'
p570
g3
((lp571
g152
ag126
ag28
ag76
ag222
ag78
atRp572
sS'sarcoma, synovial'
p573
g3
((lp574
g13
ag14
ag15
atRp575
sS'neuroblastoma'
p576
g3
((lp577
g13
ag152
ag222
ag28
ag15
atRp578
sS'thyroid neoplasms'
p579
g3
((lp580
S'DB05294'
p581
atRp582
sS'hyperlipoproteinemia type i'
p583
g3
((lp584
g486
ag313
atRp585
sS'seizures, febrile'
p586
g3
((lp587
g533
aS'DB00829'
p588
atRp589
sS'hyperlipoproteinemia type v'
p590
g3
((lp591
g486
ag313
atRp592
sS'glycogen storage disease'
p593
g3
((lp594
S'DB01272'
p595
atRp596
sS'multiple myeloma'
p597
g3
((lp598
g13
aS'DB00480'
p599
ag222
aS'DB01042'
p600
ag129
aS'DB06643'
p601
ag357
atRp602
sS'melanoma'
p603
g3
((lp604
g222
aS'DB08881'
p605
aS'DB00553'
p606
ag15
atRp607
sS'hyperinsulinism'
p608
g3
((lp609
S'DB01119'
p610
atRp611
sS'leprosy'
p612
g3
((lp613
g217
ag62
aS'DB00845'
p614
atRp615
sS'multiple acyl coenzyme a dehydrogenase deficiency'
p616
g3
((lp617
g52
atRp618
sS'stomach neoplasms'
p619
g3
((lp620
g126
ag153
ag169
ag77
ag27
ag165
ag78
atRp621
sS'carcinoid tumor'
p622
g3
((lp623
g27
ag252
atRp624
sS'tourette syndrome'
p625
g3
((lp626
S'DB01100'
p627
atRp628
s.